(dp0
S'category'
p1
S'forged_as_path'
p2
sS'as_paths'
p3
ccollections
defaultdict
p4
(cdill._dill
_create_function
p5
(cdill._dill
_load_type
p6
(S'CodeType'
p7
tp8
Rp9
(I0
I0
I2
I83
S't\x00\x00d\x01\x00\x84\x00\x00\x83\x01\x00S'
p10
(Ng9
(I0
I0
I2
I83
S't\x00\x00d\x01\x00\x84\x00\x00\x83\x01\x00S'
p11
(Ng9
(I0
I0
I1
I83
S't\x00\x00\x83\x00\x00S'
p12
(Ntp13
(S'list'
p14
tp15
(tS'/home/shicho/projects/bgp_classifier/classification/histobgpstream.py'
p16
S'<lambda>'
p17
I93
S''
p18
(t(ttp19
Rp20
tp21
(S'defaultdict'
p22
tp23
(tS'/home/shicho/projects/bgp_classifier/classification/histobgpstream.py'
p24
g17
I93
g18
(t(ttp25
Rp26
tp27
(g22
tp28
(tS'/home/shicho/projects/bgp_classifier/classification/histobgpstream.py'
p29
g17
I93
g18
(t(ttp30
Rp31
(dp32
S'__builtins__'
p33
c__builtin__
__dict__
sS'__name__'
p34
S'histobgpstream'
p35
sS'__file__'
p36
S'/home/shicho/projects/bgp-hijacks-classifier/histobgpstream.py'
p37
sS'__doc__'
p38
NsS'__package__'
p39
Nsg17
NN(dp40
tp41
Rp42
tp43
Rp44
S'route-views2'
p45
g4
(g5
(g26
g32
g17
NN(dp46
tp47
Rp48
tp49
Rp50
S'195.22.216.188'
p51
g4
(g5
(g20
g32
g17
NN(dp52
tp53
Rp54
tp55
Rp56
S'69.171.240.0/20'
p57
(lp58
(I1300752002
S'rib'
p59
S'6762 3356 32934 32934'
p60
tp61
asS'69.171.255.0/24'
p62
(lp63
(I1300752002
g59
S'6762 3356 32934 32934 32934 32934 32934'
p64
tp65
a(I1300778138
S'updates'
p66
S'6762 4134 9318 32934 32934 32934'
p67
tp68
assS'216.218.252.164'
p69
g4
(g5
(g20
g32
g17
NN(dp70
tp71
Rp72
tp73
Rp74
S'69.171.240.0/20'
p75
(lp76
(I1300752002
g59
S'6939 32934'
p77
tp78
asS'69.171.255.0/24'
p79
(lp80
(I1300752002
g59
S'6939 32934'
p81
tp82
assS'164.128.32.11'
p83
g4
(g5
(g20
g32
g17
NN(dp84
tp85
Rp86
tp87
Rp88
S'69.171.240.0/20'
p89
(lp90
(I1300752002
g59
S'3303 32934'
p91
tp92
asS'69.171.255.0/24'
p93
(lp94
(I1300752002
g59
S'3303 32934'
p95
tp96
assS'208.51.134.246'
p97
g4
(g5
(g20
g32
g17
NN(dp98
tp99
Rp100
tp101
Rp102
S'69.171.240.0/20'
p103
(lp104
(I1300752002
g59
S'3549 32934 32934'
p105
tp106
asS'69.171.255.0/24'
p107
(lp108
(I1300752002
g59
S'3549 32934 32934 32934 32934 32934'
p109
tp110
assS'203.181.248.168'
p111
g4
(g5
(g20
g32
g17
NN(dp112
tp113
Rp114
tp115
Rp116
S'69.171.240.0/20'
p117
(lp118
(I1300752002
g59
S'7660 2516 3549 32934 32934'
p119
tp120
asS'69.171.255.0/24'
p121
(lp122
(I1300752002
g59
S'7660 2516 3549 32934 32934 32934 32934 32934'
p123
tp124
assS'154.11.98.225'
p125
g4
(g5
(g20
g32
g17
NN(dp126
tp127
Rp128
tp129
Rp130
S'69.171.240.0/20'
p131
(lp132
(I1300752002
g59
S'852 32934'
p133
tp134
asS'69.171.255.0/24'
p135
(lp136
(I1300752002
g59
S'852 32934'
p137
tp138
assS'216.18.31.102'
p139
g4
(g5
(g20
g32
g17
NN(dp140
tp141
Rp142
tp143
Rp144
S'69.171.240.0/20'
p145
(lp146
(I1300752002
g59
S'6539 32934'
p147
tp148
asS'69.171.255.0/24'
p149
(lp150
(I1300752002
g59
S'6539 32934'
p151
tp152
assS'137.164.16.84'
p153
g4
(g5
(g20
g32
g17
NN(dp154
tp155
Rp156
tp157
Rp158
S'69.171.240.0/20'
p159
(lp160
(I1300752002
g59
S'2152 32934'
p161
tp162
asS'69.171.255.0/24'
p163
(lp164
(I1300752002
g59
S'2152 32934'
p165
tp166
assS'96.4.0.55'
p167
g4
(g5
(g20
g32
g17
NN(dp168
tp169
Rp170
tp171
Rp172
S'69.171.240.0/20'
p173
(lp174
(I1300752002
g59
S'11686 11164 32934'
p175
tp176
asS'69.171.255.0/24'
p177
(lp178
(I1300752002
g59
S'11686 11164 32934'
p179
tp180
assS'67.17.82.114'
p181
g4
(g5
(g20
g32
g17
NN(dp182
tp183
Rp184
tp185
Rp186
S'69.171.240.0/20'
p187
(lp188
(I1300752002
g59
S'3549 32934 32934'
p189
tp190
asS'69.171.255.0/24'
p191
(lp192
(I1300752002
g59
S'3549 32934 32934 32934 32934 32934'
p193
tp194
assS'129.250.0.11'
p195
g4
(g5
(g20
g32
g17
NN(dp196
tp197
Rp198
tp199
Rp200
S'69.171.240.0/20'
p201
(lp202
(I1300752002
g59
S'2914 32934 32934'
p203
tp204
asS'69.171.255.0/24'
p205
(lp206
(I1300752002
g59
S'2914 32934 32934 32934 32934 32934'
p207
tp208
assS'62.72.136.2'
p209
g4
(g5
(g20
g32
g17
NN(dp210
tp211
Rp212
tp213
Rp214
S'69.171.240.0/20'
p215
(lp216
(I1300752002
g59
S'5413 32934'
p217
tp218
asS'69.171.255.0/24'
p219
(lp220
(I1300752002
g59
S'5413 32934'
p221
tp222
assS'144.228.241.130'
p223
g4
(g5
(g20
g32
g17
NN(dp224
tp225
Rp226
tp227
Rp228
S'69.171.240.0/20'
p229
(lp230
(I1300752002
g59
S'1239 3356 32934 32934'
p231
tp232
asS'69.171.255.0/24'
p233
(lp234
(I1300752002
g59
S'1239 3356 32934 32934 32934 32934 32934'
p235
tp236
assS'154.11.11.113'
p237
g4
(g5
(g20
g32
g17
NN(dp238
tp239
Rp240
tp241
Rp242
S'69.171.240.0/20'
p243
(lp244
(I1300752002
g59
S'852 32934'
p245
tp246
asS'69.171.255.0/24'
p247
(lp248
(I1300752002
g59
S'852 32934'
p249
tp250
assS'66.185.128.1'
p251
g4
(g5
(g20
g32
g17
NN(dp252
tp253
Rp254
tp255
Rp256
S'69.171.240.0/20'
p257
(lp258
(I1300752002
g59
S'1668 3356 32934 32934'
p259
tp260
asS'69.171.255.0/24'
p261
(lp262
(I1300752002
g59
S'1668 3356 32934 32934 32934 32934 32934'
p263
tp264
assS'80.91.255.62'
p265
g4
(g5
(g20
g32
g17
NN(dp266
tp267
Rp268
tp269
Rp270
S'69.171.240.0/20'
p271
(lp272
(I1300752002
g59
S'1299 3356 32934 32934'
p273
tp274
asS'69.171.255.0/24'
p275
(lp276
(I1300752002
g59
S'1299 3356 32934 32934 32934 32934 32934'
p277
tp278
a(I1300778109
g66
S'1299 4134 9318 32934 32934 32934'
p279
tp280
assS'203.62.252.186'
p281
g4
(g5
(g20
g32
g17
NN(dp282
tp283
Rp284
tp285
Rp286
S'69.171.240.0/20'
p287
(lp288
(I1300752002
g59
S'1221 4637 32934'
p289
tp290
asS'69.171.255.0/24'
p291
(lp292
(I1300752002
g59
S'1221 4637 32934'
p293
tp294
assS'4.69.184.193'
p295
g4
(g5
(g20
g32
g17
NN(dp296
tp297
Rp298
tp299
Rp300
S'69.171.240.0/20'
p301
(lp302
(I1300752002
g59
S'3356 32934 32934'
p303
tp304
asS'69.171.255.0/24'
p305
(lp306
(I1300752002
g59
S'3356 32934 32934 32934 32934 32934'
p307
tp308
assS'95.140.80.254'
p309
g4
(g5
(g20
g32
g17
NN(dp310
tp311
Rp312
tp313
Rp314
S'69.171.240.0/20'
p315
(lp316
(I1300752002
g59
S'31500 32934'
p317
tp318
asS'69.171.255.0/24'
p319
(lp320
(I1300752002
g59
S'31500 32934'
p321
tp322
assS'206.24.210.102'
p323
g4
(g5
(g20
g32
g17
NN(dp324
tp325
Rp326
tp327
Rp328
S'69.171.240.0/20'
p329
(lp330
(I1300752002
g59
S'3561 3549 32934 32934'
p331
tp332
asS'69.171.255.0/24'
p333
(lp334
(I1300752002
g59
S'3561 3549 32934 32934 32934 32934 32934'
p335
tp336
a(I1300778102
g66
S'3561 4134 9318 32934 32934 32934'
p337
tp338
assS'85.114.0.217'
p339
g4
(g5
(g20
g32
g17
NN(dp340
tp341
Rp342
tp343
Rp344
S'69.171.240.0/20'
p345
(lp346
(I1300752002
g59
S'8492 32934'
p347
tp348
asS'69.171.255.0/24'
p349
(lp350
(I1300752002
g59
S'8492 32934'
p351
tp352
assS'12.0.1.63'
p353
g4
(g5
(g20
g32
g17
NN(dp354
tp355
Rp356
tp357
Rp358
S'69.171.240.0/20'
p359
(lp360
(I1300752002
g59
S'7018 3356 32934 32934'
p361
tp362
asS'69.171.255.0/24'
p363
(lp364
(I1300752002
g59
S'7018 3356 32934 32934 32934 32934 32934'
p365
tp366
a(I1300778103
g66
S'7018 4134 9318 32934 32934 32934'
p367
tp368
assS'198.129.33.85'
p369
g4
(g5
(g20
g32
g17
NN(dp370
tp371
Rp372
tp373
Rp374
S'69.171.240.0/20'
p375
(lp376
(I1300752002
g59
S'293 2914 32934 32934'
p377
tp378
asS'69.171.255.0/24'
p379
(lp380
(I1300752002
g59
S'293 2914 32934 32934 32934 32934 32934'
p381
tp382
assS'167.142.3.6'
p383
g4
(g5
(g20
g32
g17
NN(dp384
tp385
Rp386
tp387
Rp388
S'69.171.240.0/20'
p389
(lp390
(I1300752002
g59
S'5056 3356 32934 32934'
p391
tp392
a(I1300783101
g66
S'5056 209 3356 32934 32934'
p393
tp394
a(I1300783999
g66
S'5056 3356 32934 32934'
p395
tp396
asS'69.171.255.0/24'
p397
(lp398
(I1300752002
g59
S'5056 3356 32934 32934 32934 32934 32934'
p399
tp400
a(I1300778109
g66
S'5056 209 4134 9318 32934 32934 32934'
p401
tp402
assS'213.144.128.203'
p403
g4
(g5
(g20
g32
g17
NN(dp404
tp405
Rp406
tp407
Rp408
S'69.171.240.0/20'
p409
(lp410
(I1300752002
g59
S'13030 32934'
p411
tp412
asS'69.171.255.0/24'
p413
(lp414
(I1300752002
g59
S'13030 32934'
p415
tp416
assS'147.28.7.2'
p417
g4
(g5
(g20
g32
g17
NN(dp418
tp419
Rp420
tp421
Rp422
S'69.171.240.0/20'
p423
(lp424
(I1300752002
g59
S'3130 1239 3356 32934 32934'
p425
tp426
asS'69.171.255.0/24'
p427
(lp428
(I1300752002
g59
S'3130 1239 3356 32934 32934 32934 32934 32934'
p429
tp430
assS'147.28.7.1'
p431
g4
(g5
(g20
g32
g17
NN(dp432
tp433
Rp434
tp435
Rp436
S'69.171.240.0/20'
p437
(lp438
(I1300752002
g59
S'3130 1239 3356 32934 32934'
p439
tp440
asS'69.171.255.0/24'
p441
(lp442
(I1300752002
g59
S'3130 1239 3356 32934 32934 32934 32934 32934'
p443
tp444
assS'89.149.178.10'
p445
g4
(g5
(g20
g32
g17
NN(dp446
tp447
Rp448
tp449
Rp450
S'69.171.240.0/20'
p451
(lp452
(I1300752002
g59
S'3257 3549 32934 32934'
p453
tp454
asS'69.171.255.0/24'
p455
(lp456
(I1300752002
g59
S'3257 3549 32934 32934 32934 32934 32934'
p457
tp458
a(I1300778107
g66
S'3257 4134 9318 32934 32934 32934'
p459
tp460
assS'209.123.12.51'
p461
g4
(g5
(g20
g32
g17
NN(dp462
tp463
Rp464
tp465
Rp466
S'69.171.240.0/20'
p467
(lp468
(I1300752002
g59
S'8001 32934'
p469
tp470
asS'69.171.255.0/24'
p471
(lp472
(I1300752002
g59
S'8001 32934'
p473
tp474
assS'134.222.87.1'
p475
g4
(g5
(g20
g32
g17
NN(dp476
tp477
Rp478
tp479
Rp480
S'69.171.240.0/20'
p481
(lp482
(I1300752002
g59
S'286 3549 32934 32934'
p483
tp484
asS'69.171.255.0/24'
p485
(lp486
(I1300752002
g59
S'286 3549 32934 32934 32934 32934 32934'
p487
tp488
a(I1300778109
g66
S'286 4134 9318 32934 32934 32934'
p489
tp490
assS'157.130.10.233'
p491
g4
(g5
(g20
g32
g17
NN(dp492
tp493
Rp494
tp495
Rp496
S'69.171.240.0/20'
p497
(lp498
(I1300752002
g59
S'701 3356 32934 32934'
p499
tp500
asS'69.171.255.0/24'
p501
(lp502
(I1300752002
g59
S'701 3356 32934 32934 32934 32934 32934'
p503
tp504
assS'202.232.0.3'
p505
g4
(g5
(g20
g32
g17
NN(dp506
tp507
Rp508
tp509
Rp510
S'69.171.240.0/20'
p511
(lp512
(I1300752002
g59
S'2497 2914 32934 32934'
p513
tp514
asS'69.171.255.0/24'
p515
(lp516
(I1300752002
g59
S'2497 3549 32934 32934 32934 32934 32934'
p517
tp518
assS'64.71.255.61'
p519
g4
(g5
(g20
g32
g17
NN(dp520
tp521
Rp522
tp523
Rp524
S'69.171.240.0/20'
p525
(lp526
(I1300752002
g59
S'812 32934'
p527
tp528
asS'69.171.255.0/24'
p529
(lp530
(I1300752002
g59
S'812 32934'
p531
tp532
asssS'route-views.eqix'
p533
g4
(g5
(g26
g32
g17
NN(dp534
tp535
Rp536
tp537
Rp538
S'206.223.115.19'
p539
g4
(g5
(g20
g32
g17
NN(dp540
tp541
Rp542
tp543
Rp544
S'69.171.240.0/20'
p545
(lp546
(I1300752007
g59
S'3257 3549 32934 32934'
p547
tp548
asS'69.171.255.0/24'
p549
(lp550
(I1300752007
g59
S'3257 3549 32934 32934 32934 32934 32934'
p551
tp552
a(I1300778102
g66
S'3257 4134 9318 32934 32934 32934'
p553
tp554
assS'206.223.115.37'
p555
g4
(g5
(g20
g32
g17
NN(dp556
tp557
Rp558
tp559
Rp560
S'69.171.240.0/20'
p561
(lp562
(I1300752007
g59
S'6939 32934'
p563
tp564
asS'69.171.255.0/24'
p565
(lp566
(I1300752007
g59
S'6939 32934'
p567
tp568
assS'206.223.115.12'
p569
g4
(g5
(g20
g32
g17
NN(dp570
tp571
Rp572
tp573
Rp574
S'69.171.240.0/20'
p575
(lp576
(I1300752007
g59
S'2914 32934 32934'
p577
tp578
asS'69.171.255.0/24'
p579
(lp580
(I1300752007
g59
S'2914 32934 32934 32934 32934 32934'
p581
tp582
assS'206.223.115.120'
p583
g4
(g5
(g20
g32
g17
NN(dp584
tp585
Rp586
tp587
Rp588
S'69.171.240.0/20'
p589
(lp590
(I1300752007
g59
S'41095 32934'
p591
tp592
asS'69.171.255.0/24'
p593
(lp594
(I1300752007
g59
S'41095 32934'
p595
tp596
assS'206.223.115.10'
p597
g4
(g5
(g20
g32
g17
NN(dp598
tp599
Rp600
tp601
Rp602
S'69.171.240.0/20'
p603
(lp604
(I1300752007
g59
S'4589 32934'
p605
tp606
asS'69.171.255.0/24'
p607
(lp608
(I1300752007
g59
S'4589 32934'
p609
tp610
assS'206.223.115.26'
p611
g4
(g5
(g20
g32
g17
NN(dp612
tp613
Rp614
tp615
Rp616
S'69.171.240.0/20'
p617
(lp618
(I1300752007
g59
S'16559 32934'
p619
tp620
asS'69.171.255.0/24'
p621
(lp622
(I1300752007
g59
S'16559 32934'
p623
tp624
assS'206.223.115.24'
p625
g4
(g5
(g20
g32
g17
NN(dp626
tp627
Rp628
tp629
Rp630
S'69.171.240.0/20'
p631
(lp632
(I1300752007
g59
S'11666 32934'
p633
tp634
asS'69.171.255.0/24'
p635
(lp636
(I1300752007
g59
S'11666 32934'
p637
tp638
assS'206.223.115.25'
p639
g4
(g5
(g20
g32
g17
NN(dp640
tp641
Rp642
tp643
Rp644
S'69.171.240.0/20'
p645
(lp646
(I1300752007
g59
S'6079 32934'
p647
tp648
asS'69.171.255.0/24'
p649
(lp650
(I1300752007
g59
S'6079 32934'
p651
tp652
assS'206.223.115.47'
p653
g4
(g5
(g20
g32
g17
NN(dp654
tp655
Rp656
tp657
Rp658
S'69.171.240.0/20'
p659
(lp660
(I1300752007
g59
S'19151 32934'
p661
tp662
asS'69.171.255.0/24'
p663
(lp664
(I1300752007
g59
S'19151 32934'
p665
tp666
assS'206.223.115.60'
p667
g4
(g5
(g20
g32
g17
NN(dp668
tp669
Rp670
tp671
Rp672
S'69.171.240.0/20'
p673
(lp674
(I1300752007
g59
S'4436 2914 32934 32934'
p675
tp676
asS'69.171.255.0/24'
p677
(lp678
(I1300752007
g59
S'4436 2914 32934 32934 32934 32934 32934'
p679
tp680
assS'206.223.115.61'
p681
g4
(g5
(g20
g32
g17
NN(dp682
tp683
Rp684
tp685
Rp686
S'69.171.240.0/20'
p687
(lp688
(I1300752007
g59
S'4436 2914 32934 32934'
p689
tp690
asS'69.171.255.0/24'
p691
(lp692
(I1300752007
g59
S'4436 2914 32934 32934 32934 32934 32934'
p693
tp694
asssS'route-views.sydney'
p695
g4
(g5
(g26
g32
g17
NN(dp696
tp697
Rp698
tp699
Rp700
S'202.167.228.74'
p701
g4
(g5
(g20
g32
g17
NN(dp702
tp703
Rp704
tp705
Rp706
S'69.171.240.0/20'
p707
(lp708
(I1300752001
g59
S'4826 32934'
p709
tp710
asS'69.171.255.0/24'
p711
(lp712
(I1300752001
g59
S'4826 32934'
p713
tp714
assS'202.167.228.20'
p715
g4
(g5
(g20
g32
g17
NN(dp716
tp717
Rp718
tp719
Rp720
S'69.171.240.0/20'
p721
(lp722
(I1300752001
g59
S'4739 32934'
p723
tp724
asS'69.171.255.0/24'
p725
(lp726
(I1300752001
g59
S'4739 32934'
p727
tp728
assS'202.167.228.44'
p729
g4
(g5
(g20
g32
g17
NN(dp730
tp731
Rp732
tp733
Rp734
S'69.171.240.0/20'
p735
(lp736
(I1300752001
g59
S'10026 32934'
p737
tp738
asS'69.171.255.0/24'
p739
(lp740
(I1300752001
g59
S'10026 32934'
p741
tp742
assS'202.167.228.37'
p743
g4
(g5
(g20
g32
g17
NN(dp744
tp745
Rp746
tp747
Rp748
S'69.171.240.0/20'
p749
(lp750
(I1300752001
g59
S'38809 703 701 2914 32934 32934'
p751
tp752
asS'69.171.255.0/24'
p753
(lp754
(I1300752001
g59
S'38809 703 701 2914 32934 32934 32934 32934 32934'
p755
tp756
assS'202.167.228.46'
p757
g4
(g5
(g20
g32
g17
NN(dp758
tp759
Rp760
tp761
Rp762
S'69.171.240.0/20'
p763
(lp764
(I1300752001
g59
S'7575 32934'
p765
tp766
asS'69.171.255.0/24'
p767
(lp768
(I1300752001
g59
S'7575 32934'
p769
tp770
asssS'route-views4'
p771
g4
(g5
(g26
g32
g17
NN(dp772
tp773
Rp774
tp775
Rp776
S'64.57.29.241'
p777
g4
(g5
(g20
g32
g17
NN(dp778
tp779
Rp780
tp781
Rp782
S'69.171.240.0/20'
p783
(lp784
(I1300752001
g59
S'11537 32934'
p785
tp786
asS'69.171.255.0/24'
p787
(lp788
(I1300752001
g59
S'11537 32934'
p789
tp790
assS'189.112.142.61'
p791
g4
(g5
(g20
g32
g17
NN(dp792
tp793
Rp794
tp795
Rp796
S'69.171.240.0/20'
p797
(lp798
(I1300752001
g59
S'28138 16735 3549 32934 32934'
p799
tp800
asS'69.171.255.0/24'
p801
(lp802
(I1300752001
g59
S'28138 16735 3549 32934 32934 32934 32934 32934'
p803
tp804
assS'198.124.216.237'
p805
g4
(g5
(g20
g32
g17
NN(dp806
tp807
Rp808
tp809
Rp810
S'69.171.240.0/20'
p811
(lp812
(I1300752001
g59
S'293 3356 32934 32934'
p813
tp814
asS'69.171.255.0/24'
p815
(lp816
(I1300752001
g59
S'293 3356 32934 32934 32934 32934 32934'
p817
tp818
assS'189.36.224.1'
p819
g4
(g5
(g20
g32
g17
NN(dp820
tp821
Rp822
tp823
Rp824
S'69.171.240.0/20'
p825
(lp826
(I1300752001
g59
S'28289 53131 16735 3549 32934 32934'
p827
tp828
asS'69.171.255.0/24'
p829
(lp830
(I1300752001
g59
S'28289 53131 16735 3549 32934 32934 32934 32934 32934'
p831
tp832
assS'82.143.24.1'
p833
g4
(g5
(g20
g32
g17
NN(dp834
tp835
Rp836
tp837
Rp838
S'69.171.240.0/20'
p839
(lp840
(I1300752001
g59
S'29449 8928 32934'
p841
tp842
asS'69.171.255.0/24'
p843
(lp844
(I1300752001
g59
S'29449 8928 32934'
p845
tp846
assS'129.250.1.248'
p847
g4
(g5
(g20
g32
g17
NN(dp848
tp849
Rp850
tp851
Rp852
S'69.171.240.0/20'
p853
(lp854
(I1300752001
g59
S'2914 32934 32934'
p855
tp856
asS'69.171.255.0/24'
p857
(lp858
(I1300752001
g59
S'2914 32934 32934 32934 32934 32934'
p859
tp860
assS'213.248.80.244'
p861
g4
(g5
(g20
g32
g17
NN(dp862
tp863
Rp864
tp865
Rp866
S'69.171.240.0/20'
p867
(lp868
(I1300752001
g59
S'1299 3356 32934 32934'
p869
tp870
asS'69.171.255.0/24'
p871
(lp872
(I1300752001
g59
S'1299 3356 32934 32934 32934 32934 32934'
p873
tp874
a(I1300778109
g66
S'1299 4134 9318 32934 32934 32934'
p875
tp876
assS'194.85.40.15'
p877
g4
(g5
(g20
g32
g17
NN(dp878
tp879
Rp880
tp881
Rp882
S'69.171.240.0/20'
p883
(lp884
(I1300752001
g59
S'3267 9002 32934'
p885
tp886
asS'69.171.255.0/24'
p887
(lp888
(I1300752001
g59
S'3267 9002 32934'
p889
tp890
assS'85.158.24.4'
p891
g4
(g5
(g20
g32
g17
NN(dp892
tp893
Rp894
tp895
Rp896
S'69.171.240.0/20'
p897
(lp898
(I1300752001
g59
S'34288 32934'
p899
tp900
asS'69.171.255.0/24'
p901
(lp902
(I1300752001
g59
S'34288 32934'
p903
tp904
assS'119.63.216.246'
p905
g4
(g5
(g20
g32
g17
NN(dp906
tp907
Rp908
tp909
Rp910
S'69.171.240.0/20'
p911
(lp912
(I1300752001
g59
S'38883 4826 32934'
p913
tp914
asS'69.171.255.0/24'
p915
(lp916
(I1300752001
g59
S'38883 4826 32934'
p917
tp918
assS'194.71.0.1'
p919
g4
(g5
(g20
g32
g17
NN(dp920
tp921
Rp922
tp923
Rp924
S'69.171.240.0/20'
p925
(lp926
(I1300752001
g59
S'48285 16150 32934'
p927
tp928
asS'69.171.255.0/24'
p929
(lp930
(I1300752001
g59
S'48285 16150 32934'
p931
tp932
asssS'rrc11'
p933
g4
(g5
(g26
g32
g17
NN(dp934
tp935
Rp936
tp937
Rp938
S'198.32.160.187'
p939
g4
(g5
(g20
g32
g17
NN(dp940
tp941
Rp942
tp943
Rp944
S'69.171.240.0/20'
p945
(lp946
(I1300751995
g59
S'8426 3549 32934 32934'
p947
tp948
assS'198.32.160.182'
p949
g4
(g5
(g20
g32
g17
NN(dp950
tp951
Rp952
tp953
Rp954
S'69.171.240.0/20'
p955
(lp956
(I1300751995
g59
S'9002 32934'
p957
tp958
asS'69.171.255.0/24'
p959
(lp960
(I1300751995
g59
S'9002 32934'
p961
tp962
assS'198.32.160.137'
p963
g4
(g5
(g20
g32
g17
NN(dp964
tp965
Rp966
tp967
Rp968
S'69.171.240.0/20'
p969
(lp970
(I1300751995
g59
S'19151 32934'
p971
tp972
asS'69.171.255.0/24'
p973
(lp974
(I1300751995
g59
S'19151 32934'
p975
tp976
assS'198.32.160.96'
p977
g4
(g5
(g20
g32
g17
NN(dp978
tp979
Rp980
tp981
Rp982
S'69.171.240.0/20'
p983
(lp984
(I1300751995
g59
S'14361 32934'
p985
tp986
asS'69.171.255.0/24'
p987
(lp988
(I1300751995
g59
S'14361 32934'
p989
tp990
assS'198.32.160.42'
p991
g4
(g5
(g20
g32
g17
NN(dp992
tp993
Rp994
tp995
Rp996
S'69.171.240.0/20'
p997
(lp998
(I1300751995
g59
S'2497 2914 32934 32934'
p999
tp1000
asS'69.171.255.0/24'
p1001
(lp1002
(I1300751995
g59
S'2497 2914 32934 32934 32934 32934 32934'
p1003
tp1004
assS'198.32.160.103'
p1005
g4
(g5
(g20
g32
g17
NN(dp1006
tp1007
Rp1008
tp1009
Rp1010
S'69.171.240.0/20'
p1011
(lp1012
(I1300751995
g59
S'13030 32934'
p1013
tp1014
asS'69.171.255.0/24'
p1015
(lp1016
(I1300751995
g59
S'13030 32934'
p1017
tp1018
assS'198.32.160.22'
p1019
g4
(g5
(g20
g32
g17
NN(dp1020
tp1021
Rp1022
tp1023
Rp1024
S'69.171.240.0/20'
p1025
(lp1026
(I1300751995
g59
S'6461 3549 32934 32934'
p1027
tp1028
asS'69.171.255.0/24'
p1029
(lp1030
(I1300751995
g59
S'6461 3549 32934 32934 32934 32934 32934'
p1031
tp1032
a(I1300778103
g66
S'6461 4134 9318 32934 32934 32934'
p1033
tp1034
assS'198.32.160.15'
p1035
g4
(g5
(g20
g32
g17
NN(dp1036
tp1037
Rp1038
tp1039
Rp1040
S'69.171.240.0/20'
p1041
(lp1042
(I1300751995
g59
S'22691 8001 32934'
p1043
tp1044
asS'69.171.255.0/24'
p1045
(lp1046
(I1300751995
g59
S'22691 8001 32934'
p1047
tp1048
asssS'rrc10'
p1049
g4
(g5
(g26
g32
g17
NN(dp1050
tp1051
Rp1052
tp1053
Rp1054
S'217.29.66.36'
p1055
g4
(g5
(g20
g32
g17
NN(dp1056
tp1057
Rp1058
tp1059
Rp1060
S'69.171.240.0/20'
p1061
(lp1062
(I1300751998
g59
S'34695 32934'
p1063
tp1064
asS'69.171.255.0/24'
p1065
(lp1066
(I1300751998
g59
S'34695 32934'
p1067
tp1068
assS'217.29.66.65'
p1069
g4
(g5
(g20
g32
g17
NN(dp1070
tp1071
Rp1072
tp1073
Rp1074
S'69.171.240.0/20'
p1075
(lp1076
(I1300751998
g59
S'12779 3549 32934 32934'
p1077
tp1078
asS'69.171.255.0/24'
p1079
(lp1080
(I1300751998
g59
S'12779 3549 32934 32934 32934 32934 32934'
p1081
tp1082
assS'217.29.66.102'
p1083
g4
(g5
(g20
g32
g17
NN(dp1084
tp1085
Rp1086
tp1087
Rp1088
S'69.171.240.0/20'
p1089
(lp1090
(I1300751998
g59
S'51185 8220 32934'
p1091
tp1092
asS'69.171.255.0/24'
p1093
(lp1094
(I1300751998
g59
S'51185 8220 32934'
p1095
tp1096
assS'217.29.66.86'
p1097
g4
(g5
(g20
g32
g17
NN(dp1098
tp1099
Rp1100
tp1101
Rp1102
S'69.171.240.0/20'
p1103
(lp1104
(I1300751998
g59
S'12637 3549 32934 32934'
p1105
tp1106
asS'69.171.255.0/24'
p1107
(lp1108
(I1300751998
g59
S'12637 3549 32934 32934 32934 32934 32934'
p1109
tp1110
asssS'rrc13'
p1111
g4
(g5
(g26
g32
g17
NN(dp1112
tp1113
Rp1114
tp1115
Rp1116
S'193.232.244.15'
p1117
g4
(g5
(g20
g32
g17
NN(dp1118
tp1119
Rp1120
tp1121
Rp1122
S'69.171.240.0/20'
p1123
(lp1124
(I1300751994
g59
S'39821 9002 32934'
p1125
tp1126
asS'69.171.255.0/24'
p1127
(lp1128
(I1300751994
g59
S'39821 9002 32934'
p1129
tp1130
assS'193.232.244.136'
p1131
g4
(g5
(g20
g32
g17
NN(dp1132
tp1133
Rp1134
tp1135
Rp1136
S'69.171.240.0/20'
p1137
(lp1138
(I1300751994
g59
S'39792 32934'
p1139
tp1140
asS'69.171.255.0/24'
p1141
(lp1142
(I1300751994
g59
S'39792 32934'
p1143
tp1144
assS'193.232.244.111'
p1145
g4
(g5
(g20
g32
g17
NN(dp1146
tp1147
Rp1148
tp1149
Rp1150
S'69.171.240.0/20'
p1151
(lp1152
(I1300751994
g59
S'8331 42861 42861 32934'
p1153
tp1154
asS'69.171.255.0/24'
p1155
(lp1156
(I1300751994
g59
S'8331 42861 42861 32934'
p1157
tp1158
assS'193.232.244.130'
p1159
g4
(g5
(g20
g32
g17
NN(dp1160
tp1161
Rp1162
tp1163
Rp1164
S'69.171.240.0/20'
p1165
(lp1166
(I1300751994
g59
S'20632 9002 32934'
p1167
tp1168
asS'69.171.255.0/24'
p1169
(lp1170
(I1300751994
g59
S'20632 9002 32934'
p1171
tp1172
assS'193.232.245.4'
p1173
g4
(g5
(g20
g32
g17
NN(dp1174
tp1175
Rp1176
tp1177
Rp1178
S'69.171.240.0/20'
p1179
(lp1180
(I1300751994
g59
S'41095 32934'
p1181
tp1182
asS'69.171.255.0/24'
p1183
(lp1184
(I1300751994
g59
S'41095 32934'
p1185
tp1186
assS'193.232.244.172'
p1187
g4
(g5
(g20
g32
g17
NN(dp1188
tp1189
Rp1190
tp1191
Rp1192
S'69.171.240.0/20'
p1193
(lp1194
(I1300751994
g59
S'31323 1299 32934'
p1195
tp1196
asS'69.171.255.0/24'
p1197
(lp1198
(I1300751994
g59
S'31323 8359 32934'
p1199
tp1200
assS'193.232.244.187'
p1201
g4
(g5
(g20
g32
g17
NN(dp1202
tp1203
Rp1204
tp1205
Rp1206
S'69.171.240.0/20'
p1207
(lp1208
(I1300751994
g59
S'9002 32934'
p1209
tp1210
asS'69.171.255.0/24'
p1211
(lp1212
(I1300751994
g59
S'9002 32934'
p1213
tp1214
assS'193.232.244.147'
p1215
g4
(g5
(g20
g32
g17
NN(dp1216
tp1217
Rp1218
tp1219
Rp1220
S'69.171.240.0/20'
p1221
(lp1222
(I1300751994
g59
S'28917 32934'
p1223
tp1224
asS'69.171.255.0/24'
p1225
(lp1226
(I1300751994
g59
S'28917 32934'
p1227
tp1228
assS'193.232.244.63'
p1229
g4
(g5
(g20
g32
g17
NN(dp1230
tp1231
Rp1232
tp1233
Rp1234
S'69.171.240.0/20'
p1235
(lp1236
(I1300751994
g59
S'8402 3549 32934 32934'
p1237
tp1238
asS'69.171.255.0/24'
p1239
(lp1240
(I1300751994
g59
S'8402 3549 32934 32934 32934 32934 32934'
p1241
tp1242
assS'193.232.244.36'
p1243
g4
(g5
(g20
g32
g17
NN(dp1244
tp1245
Rp1246
tp1247
Rp1248
S'69.171.240.0/20'
p1249
(lp1250
(I1300751994
g59
S'2895 3267 9002 32934'
p1251
tp1252
asS'69.171.255.0/24'
p1253
(lp1254
(I1300751994
g59
S'2895 3267 9002 32934'
p1255
tp1256
assS'193.232.244.30'
p1257
g4
(g5
(g20
g32
g17
NN(dp1258
tp1259
Rp1260
tp1261
Rp1262
S'69.171.240.0/20'
p1263
(lp1264
(I1300751994
g59
S'8359 32934'
p1265
tp1266
asS'69.171.255.0/24'
p1267
(lp1268
(I1300751994
g59
S'8359 32934'
p1269
tp1270
asssS'rrc12'
p1271
g4
(g5
(g26
g32
g17
NN(dp1272
tp1273
Rp1274
tp1275
Rp1276
S'80.81.192.30'
p1277
g4
(g5
(g20
g32
g17
NN(dp1278
tp1279
Rp1280
tp1281
Rp1282
S'69.171.240.0/20'
p1283
(lp1284
(I1300751993
g59
S'3257 3549 32934 32934'
p1285
tp1286
asS'69.171.255.0/24'
p1287
(lp1288
(I1300751993
g59
S'3257 3549 32934 32934 32934 32934 32934'
p1289
tp1290
a(I1300778102
g66
S'3257 4134 9318 32934 32934 32934'
p1291
tp1292
assS'80.81.192.46'
p1293
g4
(g5
(g20
g32
g17
NN(dp1294
tp1295
Rp1296
tp1297
Rp1298
S'69.171.240.0/20'
p1299
(lp1300
(I1300751993
g59
S'2914 32934 32934'
p1301
tp1302
asS'69.171.255.0/24'
p1303
(lp1304
(I1300751993
g59
S'2914 32934 32934 32934 32934 32934'
p1305
tp1306
assS'80.81.192.78'
p1307
g4
(g5
(g20
g32
g17
NN(dp1308
tp1309
Rp1310
tp1311
Rp1312
S'69.171.240.0/20'
p1313
(lp1314
(I1300751993
g59
S'8359 32934'
p1315
tp1316
asS'69.171.255.0/24'
p1317
(lp1318
(I1300751993
g59
S'8359 32934'
p1319
tp1320
assS'80.81.194.119'
p1321
g4
(g5
(g20
g32
g17
NN(dp1322
tp1323
Rp1324
tp1325
Rp1326
S'69.171.240.0/20'
p1327
(lp1328
(I1300751993
g59
S'34288 32934'
p1329
tp1330
asS'69.171.255.0/24'
p1331
(lp1332
(I1300751993
g59
S'34288 32934'
p1333
tp1334
assS'80.81.192.74'
p1335
g4
(g5
(g20
g32
g17
NN(dp1336
tp1337
Rp1338
tp1339
Rp1340
S'69.171.240.0/20'
p1341
(lp1342
(I1300751993
g59
S'13237 3356 32934 32934'
p1343
tp1344
asS'69.171.255.0/24'
p1345
(lp1346
(I1300751993
g59
S'13237 3356 32934 32934 32934 32934 32934'
p1347
tp1348
assS'80.81.192.133'
p1349
g4
(g5
(g20
g32
g17
NN(dp1350
tp1351
Rp1352
tp1353
Rp1354
S'69.171.240.0/20'
p1355
(lp1356
(I1300751993
g59
S'29686 32934'
p1357
tp1358
asS'69.171.255.0/24'
p1359
(lp1360
(I1300751993
g59
S'29686 32934'
p1361
tp1362
assS'80.81.192.98'
p1363
g4
(g5
(g20
g32
g17
NN(dp1364
tp1365
Rp1366
tp1367
Rp1368
S'69.171.240.0/20'
p1369
(lp1370
(I1300751993
g59
S'9189 8422 32934'
p1371
tp1372
asS'69.171.255.0/24'
p1373
(lp1374
(I1300751993
g59
S'9189 8422 32934'
p1375
tp1376
assS'80.81.192.194'
p1377
g4
(g5
(g20
g32
g17
NN(dp1378
tp1379
Rp1380
tp1381
Rp1382
S'69.171.240.0/20'
p1383
(lp1384
(I1300751993
g59
S'6762 3549 32934 32934'
p1385
tp1386
asS'69.171.255.0/24'
p1387
(lp1388
(I1300751993
g59
S'6762 3549 32934 32934 32934 32934 32934'
p1389
tp1390
a(I1300778122
g66
S'6762 4134 9318 32934 32934 32934'
p1391
tp1392
assS'80.81.192.222'
p1393
g4
(g5
(g20
g32
g17
NN(dp1394
tp1395
Rp1396
tp1397
Rp1398
S'69.171.240.0/20'
p1399
(lp1400
(I1300751993
g59
S'680 1299 1299 1299 1299 1299 32934'
p1401
tp1402
asS'69.171.255.0/24'
p1403
(lp1404
(I1300751993
g59
S'680 1299 1299 1299 1299 1299 32934'
p1405
tp1406
assS'80.81.192.220'
p1407
g4
(g5
(g20
g32
g17
NN(dp1408
tp1409
Rp1410
tp1411
Rp1412
S'69.171.240.0/20'
p1413
(lp1414
(I1300751993
g59
S'19151 32934'
p1415
tp1416
asS'69.171.255.0/24'
p1417
(lp1418
(I1300751993
g59
S'19151 32934'
p1419
tp1420
assS'80.81.192.14'
p1421
g4
(g5
(g20
g32
g17
NN(dp1422
tp1423
Rp1424
tp1425
Rp1426
S'69.171.240.0/20'
p1427
(lp1428
(I1300751993
g59
S'4589 32934'
p1429
tp1430
asS'69.171.255.0/24'
p1431
(lp1432
(I1300751993
g59
S'4589 32934'
p1433
tp1434
asssS'rrc15'
p1435
g4
(g5
(g26
g32
g17
NN(dp1436
tp1437
Rp1438
tp1439
Rp1440
S'200.219.130.24'
p1441
g4
(g5
(g20
g32
g17
NN(dp1442
tp1443
Rp1444
tp1445
Rp1446
S'69.171.240.0/20'
p1447
(lp1448
(I1300751997
g59
S'16735 3549 32934 32934'
p1449
tp1450
asS'69.171.255.0/24'
p1451
(lp1452
(I1300751997
g59
S'16735 3549 32934 32934 32934 32934 32934'
p1453
tp1454
assS'200.219.130.10'
p1455
g4
(g5
(g20
g32
g17
NN(dp1456
tp1457
Rp1458
tp1459
Rp1460
S'69.171.240.0/20'
p1461
(lp1462
(I1300751997
g59
S'19089 7162 3549 32934 32934'
p1463
tp1464
asS'69.171.255.0/24'
p1465
(lp1466
(I1300751997
g59
S'19089 7162 3549 32934 32934 32934 32934 32934'
p1467
tp1468
assS'200.219.130.75'
p1469
g4
(g5
(g20
g32
g17
NN(dp1470
tp1471
Rp1472
tp1473
Rp1474
S'69.171.240.0/20'
p1475
(lp1476
(I1300751997
g59
S'28220 4230 2914 32934 32934'
p1477
tp1478
a(I1300779225
g66
S'28220 28220 12956 2914 32934 32934'
p1479
tp1480
a(I1300779717
g66
S'28220 4230 2914 32934 32934'
p1481
tp1482
assS'200.160.0.137'
p1483
g4
(g5
(g20
g32
g17
NN(dp1484
tp1485
Rp1486
tp1487
Rp1488
S'69.171.240.0/20'
p1489
(lp1490
(I1300751997
g59
S'22548 10429 12956 2914 32934 32934'
p1491
tp1492
asS'69.171.255.0/24'
p1493
(lp1494
(I1300751997
g59
S'22548 10429 12956 2914 32934 32934 32934 32934 32934'
p1495
tp1496
a(I1300778129
g66
S'22548 3549 32934 32934 32934 32934 32934'
p1497
tp1498
assS'200.219.130.104'
p1499
g4
(g5
(g20
g32
g17
NN(dp1500
tp1501
Rp1502
tp1503
Rp1504
S'69.171.240.0/20'
p1505
(lp1506
(I1300751997
g59
S'28289 53131 16735 3549 32934 32934'
p1507
tp1508
asS'69.171.255.0/24'
p1509
(lp1510
(I1300751997
g59
S'28289 53131 16735 3549 32934 32934 32934 32934 32934'
p1511
tp1512
assS'200.219.130.102'
p1513
g4
(g5
(g20
g32
g17
NN(dp1514
tp1515
Rp1516
tp1517
Rp1518
S'69.171.240.0/20'
p1519
(lp1520
(I1300751997
g59
S'53070 16735 3549 32934 32934'
p1521
tp1522
asS'69.171.255.0/24'
p1523
(lp1524
(I1300751997
g59
S'53070 16735 3549 32934 32934 32934 32934 32934'
p1525
tp1526
assS'200.219.130.90'
p1527
g4
(g5
(g20
g32
g17
NN(dp1528
tp1529
Rp1530
tp1531
Rp1532
S'69.171.240.0/20'
p1533
(lp1534
(I1300751997
g59
S'28138 16735 3549 32934 32934'
p1535
tp1536
asS'69.171.255.0/24'
p1537
(lp1538
(I1300751997
g59
S'28138 16735 3549 32934 32934 32934 32934 32934'
p1539
tp1540
asssS'rrc14'
p1541
g4
(g5
(g26
g32
g17
NN(dp1542
tp1543
Rp1544
tp1545
Rp1546
S'198.32.176.164'
p1547
g4
(g5
(g20
g32
g17
NN(dp1548
tp1549
Rp1550
tp1551
Rp1552
S'69.171.240.0/20'
p1553
(lp1554
(I1300752000
g59
S'19151 32934'
p1555
tp1556
asS'69.171.255.0/24'
p1557
(lp1558
(I1300752000
g59
S'19151 32934'
p1559
tp1560
assS'198.32.176.14'
p1561
g4
(g5
(g20
g32
g17
NN(dp1562
tp1563
Rp1564
tp1565
Rp1566
S'69.171.240.0/20'
p1567
(lp1568
(I1300752000
g59
S'2914 32934 32934'
p1569
tp1570
asS'69.171.255.0/24'
p1571
(lp1572
(I1300752000
g59
S'2914 32934 32934 32934 32934 32934'
p1573
tp1574
assS'198.32.176.70'
p1575
g4
(g5
(g20
g32
g17
NN(dp1576
tp1577
Rp1578
tp1579
Rp1580
S'69.171.240.0/20'
p1581
(lp1582
(I1300752000
g59
S'6762 2914 32934 32934'
p1583
tp1584
asS'69.171.255.0/24'
p1585
(lp1586
(I1300752000
g59
S'6762 3549 32934 32934 32934 32934 32934'
p1587
tp1588
a(I1300778121
g66
S'6762 4134 9318 32934 32934 32934'
p1589
tp1590
assS'198.32.176.75'
p1591
g4
(g5
(g20
g32
g17
NN(dp1592
tp1593
Rp1594
tp1595
Rp1596
S'69.171.240.0/20'
p1597
(lp1598
(I1300778098
g66
S'9318 9318 9318 9318 32934 32934 32934'
p1599
tp1600
asS'69.171.255.0/24'
p1601
(lp1602
(I1300778098
g66
S'9318 9318 9318 9318 32934 32934 32934'
p1603
tp1604
assS'198.32.176.177'
p1605
g4
(g5
(g20
g32
g17
NN(dp1606
tp1607
Rp1608
tp1609
Rp1610
S'69.171.240.0/20'
p1611
(lp1612
(I1300752000
g59
S'7575 32934'
p1613
tp1614
asS'69.171.255.0/24'
p1615
(lp1616
(I1300752000
g59
S'7575 32934'
p1617
tp1618
assS'198.32.176.3'
p1619
g4
(g5
(g20
g32
g17
NN(dp1620
tp1621
Rp1622
tp1623
Rp1624
S'69.171.240.0/20'
p1625
(lp1626
(I1300752000
g59
S'1280 32934'
p1627
tp1628
asS'69.171.255.0/24'
p1629
(lp1630
(I1300752000
g59
S'1280 32934'
p1631
tp1632
assS'198.32.176.24'
p1633
g4
(g5
(g20
g32
g17
NN(dp1634
tp1635
Rp1636
tp1637
Rp1638
S'69.171.240.0/20'
p1639
(lp1640
(I1300752000
g59
S'2497 3356 32934 32934'
p1641
tp1642
asS'69.171.255.0/24'
p1643
(lp1644
(I1300752000
g59
S'2497 3356 32934 32934 32934 32934 32934'
p1645
tp1646
asssS'rrc16'
p1647
g4
(g5
(g26
g32
g17
NN(dp1648
tp1649
Rp1650
tp1651
Rp1652
S'198.32.124.146'
p1653
g4
(g5
(g20
g32
g17
NN(dp1654
tp1655
Rp1656
tp1657
Rp1658
S'69.171.240.0/20'
p1659
(lp1660
(I1300751999
g59
S'25152 23148 32934'
p1661
tp1662
asS'69.171.255.0/24'
p1663
(lp1664
(I1300751999
g59
S'25152 23148 32934'
p1665
tp1666
assS'198.32.124.215'
p1667
g4
(g5
(g20
g32
g17
NN(dp1668
tp1669
Rp1670
tp1671
Rp1672
S'69.171.240.0/20'
p1673
(lp1674
(I1300751999
g59
S'34695 32934'
p1675
tp1676
asS'69.171.255.0/24'
p1677
(lp1678
(I1300751999
g59
S'34695 32934'
p1679
tp1680
asssS'route-views.wide'
p1681
g4
(g5
(g26
g32
g17
NN(dp1682
tp1683
Rp1684
tp1685
Rp1686
S'202.249.2.169'
p1687
g4
(g5
(g20
g32
g17
NN(dp1688
tp1689
Rp1690
tp1691
Rp1692
S'69.171.240.0/20'
p1693
(lp1694
(I1300752000
g59
S'2497 2914 32934 32934'
p1695
tp1696
asS'69.171.255.0/24'
p1697
(lp1698
(I1300752000
g59
S'2497 3549 32934 32934 32934 32934 32934'
p1699
tp1700
assS'202.249.2.86'
p1701
g4
(g5
(g20
g32
g17
NN(dp1702
tp1703
Rp1704
tp1705
Rp1706
S'69.171.240.0/20'
p1707
(lp1708
(I1300752000
g59
S'7500 2497 2914 32934 32934'
p1709
tp1710
asS'69.171.255.0/24'
p1711
(lp1712
(I1300752000
g59
S'7500 2497 3549 32934 32934 32934 32934 32934'
p1713
tp1714
asssS'route-views.linx'
p1715
g4
(g5
(g26
g32
g17
NN(dp1716
tp1717
Rp1718
tp1719
Rp1720
S'195.66.226.114'
p1721
g4
(g5
(g20
g32
g17
NN(dp1722
tp1723
Rp1724
tp1725
Rp1726
S'69.171.240.0/20'
p1727
(lp1728
(I1300749397
g59
S'6667 32934'
p1729
tp1730
asS'69.171.255.0/24'
p1731
(lp1732
(I1300749397
g59
S'6667 32934'
p1733
tp1734
assS'195.66.226.66'
p1735
g4
(g5
(g20
g32
g17
NN(dp1736
tp1737
Rp1738
tp1739
Rp1740
S'69.171.240.0/20'
p1741
(lp1742
(I1300749397
g59
S'8426 32934'
p1743
tp1744
asS'69.171.255.0/24'
p1745
(lp1746
(I1300749397
g59
S'8426 32934'
p1747
tp1748
assS'195.66.226.29'
p1749
g4
(g5
(g20
g32
g17
NN(dp1750
tp1751
Rp1752
tp1753
Rp1754
S'69.171.240.0/20'
p1755
(lp1756
(I1300749397
g59
S'5413 32934'
p1757
tp1758
asS'69.171.255.0/24'
p1759
(lp1760
(I1300749397
g59
S'5413 32934'
p1761
tp1762
assS'195.66.224.66'
p1763
g4
(g5
(g20
g32
g17
NN(dp1764
tp1765
Rp1766
tp1767
Rp1768
S'69.171.240.0/20'
p1769
(lp1770
(I1300749397
g59
S'8426 32934'
p1771
tp1772
asS'69.171.255.0/24'
p1773
(lp1774
(I1300749397
g59
S'8426 32934'
p1775
tp1776
assS'195.66.224.29'
p1777
g4
(g5
(g20
g32
g17
NN(dp1778
tp1779
Rp1780
tp1781
Rp1782
S'69.171.240.0/20'
p1783
(lp1784
(I1300749397
g59
S'5413 32934'
p1785
tp1786
asS'69.171.255.0/24'
p1787
(lp1788
(I1300749397
g59
S'5413 32934'
p1789
tp1790
assS'195.66.224.21'
p1791
g4
(g5
(g20
g32
g17
NN(dp1792
tp1793
Rp1794
tp1795
Rp1796
S'69.171.240.0/20'
p1797
(lp1798
(I1300749397
g59
S'6939 32934'
p1799
tp1800
asS'69.171.255.0/24'
p1801
(lp1802
(I1300749397
g59
S'6939 32934'
p1803
tp1804
assS'195.66.226.35'
p1805
g4
(g5
(g20
g32
g17
NN(dp1806
tp1807
Rp1808
tp1809
Rp1810
S'69.171.240.0/20'
p1811
(lp1812
(I1300749397
g59
S'6067 3356 32934 32934'
p1813
tp1814
asS'69.171.255.0/24'
p1815
(lp1816
(I1300749397
g59
S'6067 3356 32934 32934 32934 32934 32934'
p1817
tp1818
a(I1300778112
g66
S'6067 286 4134 9318 32934 32934 32934'
p1819
tp1820
assS'195.66.224.118'
p1821
g4
(g5
(g20
g32
g17
NN(dp1822
tp1823
Rp1824
tp1825
Rp1826
S'69.171.240.0/20'
p1827
(lp1828
(I1300749397
g59
S'14537 3356 32934 32934'
p1829
tp1830
asS'69.171.255.0/24'
p1831
(lp1832
(I1300749397
g59
S'14537 3356 32934 32934 32934 32934 32934'
p1833
tp1834
assS'195.66.224.110'
p1835
g4
(g5
(g20
g32
g17
NN(dp1836
tp1837
Rp1838
tp1839
Rp1840
S'69.171.240.0/20'
p1841
(lp1842
(I1300749397
g59
S'3303 32934'
p1843
tp1844
asS'69.171.255.0/24'
p1845
(lp1846
(I1300749397
g59
S'3303 32934'
p1847
tp1848
assS'195.66.224.114'
p1849
g4
(g5
(g20
g32
g17
NN(dp1850
tp1851
Rp1852
tp1853
Rp1854
S'69.171.240.0/20'
p1855
(lp1856
(I1300749397
g59
S'6667 32934'
p1857
tp1858
asS'69.171.255.0/24'
p1859
(lp1860
(I1300749397
g59
S'6667 32934'
p1861
tp1862
assS'195.66.224.97'
p1863
g4
(g5
(g20
g32
g17
NN(dp1864
tp1865
Rp1866
tp1867
Rp1868
S'69.171.240.0/20'
p1869
(lp1870
(I1300749397
g59
S'1299 32934'
p1871
tp1872
asS'69.171.255.0/24'
p1873
(lp1874
(I1300749397
g59
S'1299 32934'
p1875
tp1876
assS'195.66.224.175'
p1877
g4
(g5
(g20
g32
g17
NN(dp1878
tp1879
Rp1880
tp1881
Rp1882
S'69.171.240.0/20'
p1883
(lp1884
(I1300749397
g59
S'13030 32934'
p1885
tp1886
asS'69.171.255.0/24'
p1887
(lp1888
(I1300749397
g59
S'13030 32934'
p1889
tp1890
assS'195.66.226.32'
p1891
g4
(g5
(g20
g32
g17
NN(dp1892
tp1893
Rp1894
tp1895
Rp1896
S'69.171.240.0/20'
p1897
(lp1898
(I1300749397
g59
S'3257 3549 32934 32934'
p1899
tp1900
asS'69.171.255.0/24'
p1901
(lp1902
(I1300749397
g59
S'3257 3549 32934 32934 32934 32934 32934'
p1903
tp1904
a(I1300778102
g66
S'3257 4134 9318 32934 32934 32934'
p1905
tp1906
assS'195.66.224.99'
p1907
g4
(g5
(g20
g32
g17
NN(dp1908
tp1909
Rp1910
tp1911
Rp1912
S'69.171.240.0/20'
p1913
(lp1914
(I1300749397
g59
S'13237 3356 32934 32934'
p1915
tp1916
asS'69.171.255.0/24'
p1917
(lp1918
(I1300749397
g59
S'13237 3356 32934 32934 32934 32934 32934'
p1919
tp1920
assS'195.66.224.53'
p1921
g4
(g5
(g20
g32
g17
NN(dp1922
tp1923
Rp1924
tp1925
Rp1926
S'69.171.240.0/20'
p1927
(lp1928
(I1300749397
g59
S'8928 32934'
p1929
tp1930
asS'69.171.255.0/24'
p1931
(lp1932
(I1300749397
g59
S'8928 32934'
p1933
tp1934
assS'195.66.224.233'
p1935
g4
(g5
(g20
g32
g17
NN(dp1936
tp1937
Rp1938
tp1939
Rp1940
S'69.171.240.0/20'
p1941
(lp1942
(I1300749397
g59
S'19151 32934'
p1943
tp1944
asS'69.171.255.0/24'
p1945
(lp1946
(I1300749397
g59
S'19151 32934'
p1947
tp1948
assS'195.66.224.51'
p1949
g4
(g5
(g20
g32
g17
NN(dp1950
tp1951
Rp1952
tp1953
Rp1954
S'69.171.240.0/20'
p1955
(lp1956
(I1300749397
g59
S'6453 3356 32934 32934'
p1957
tp1958
asS'69.171.255.0/24'
p1959
(lp1960
(I1300749397
g59
S'6453 3356 32934 32934 32934 32934 32934'
p1961
tp1962
assS'195.66.224.39'
p1963
g4
(g5
(g20
g32
g17
NN(dp1964
tp1965
Rp1966
tp1967
Rp1968
S'69.171.240.0/20'
p1969
(lp1970
(I1300749397
g59
S'3561 3356 32934 32934'
p1971
tp1972
asS'69.171.255.0/24'
p1973
(lp1974
(I1300749397
g59
S'3561 3356 32934 32934 32934 32934 32934'
p1975
tp1976
a(I1300778116
g66
S'3561 4134 9318 32934 32934 32934'
p1977
tp1978
assS'195.66.224.35'
p1979
g4
(g5
(g20
g32
g17
NN(dp1980
tp1981
Rp1982
tp1983
Rp1984
S'69.171.240.0/20'
p1985
(lp1986
(I1300749397
g59
S'6067 3356 32934 32934'
p1987
tp1988
asS'69.171.255.0/24'
p1989
(lp1990
(I1300749397
g59
S'6067 3356 32934 32934 32934 32934 32934'
p1991
tp1992
assS'195.66.224.32'
p1993
g4
(g5
(g20
g32
g17
NN(dp1994
tp1995
Rp1996
tp1997
Rp1998
S'69.171.240.0/20'
p1999
(lp2000
(I1300749397
g59
S'3257 3549 32934 32934'
p2001
tp2002
asS'69.171.255.0/24'
p2003
(lp2004
(I1300749397
g59
S'3257 3549 32934 32934 32934 32934 32934'
p2005
tp2006
a(I1300778102
g66
S'3257 4134 9318 32934 32934 32934'
p2007
tp2008
assS'195.66.224.215'
p2009
g4
(g5
(g20
g32
g17
NN(dp2010
tp2011
Rp2012
tp2013
Rp2014
S'69.171.240.0/20'
p2015
(lp2016
(I1300749397
g59
S'31500 32934'
p2017
tp2018
asS'69.171.255.0/24'
p2019
(lp2020
(I1300749397
g59
S'31500 32934'
p2021
tp2022
assS'195.66.224.153'
p2023
g4
(g5
(g20
g32
g17
NN(dp2024
tp2025
Rp2026
tp2027
Rp2028
S'69.171.240.0/20'
p2029
(lp2030
(I1300749397
g59
S'6762 3549 32934 32934'
p2031
tp2032
asS'69.171.255.0/24'
p2033
(lp2034
(I1300749397
g59
S'6762 3549 32934 32934 32934 32934 32934'
p2035
tp2036
a(I1300778122
g66
S'6762 4134 9318 32934 32934 32934'
p2037
tp2038
assS'195.66.226.170'
p2039
g4
(g5
(g20
g32
g17
NN(dp2040
tp2041
Rp2042
tp2043
Rp2044
S'69.171.240.0/20'
p2045
(lp2046
(I1300749397
g59
S'44444 32934'
p2047
tp2048
asS'69.171.255.0/24'
p2049
(lp2050
(I1300749397
g59
S'44444 32934'
p2051
tp2052
assS'195.66.226.175'
p2053
g4
(g5
(g20
g32
g17
NN(dp2054
tp2055
Rp2056
tp2057
Rp2058
S'69.171.240.0/20'
p2059
(lp2060
(I1300749397
g59
S'13030 32934'
p2061
tp2062
asS'69.171.255.0/24'
p2063
(lp2064
(I1300749397
g59
S'13030 32934'
p2065
tp2066
asssS'route-views.saopaulo'
p2067
g4
(g5
(g26
g32
g17
NN(dp2068
tp2069
Rp2070
tp2071
Rp2072
S'200.219.130.104'
p2073
g4
(g5
(g20
g32
g17
NN(dp2074
tp2075
Rp2076
tp2077
Rp2078
S'69.171.240.0/20'
p2079
(lp2080
(I1300752000
g59
S'28289 53131 16735 3549 32934 32934'
p2081
tp2082
asS'69.171.255.0/24'
p2083
(lp2084
(I1300752000
g59
S'28289 53131 16735 3549 32934 32934 32934 32934 32934'
p2085
tp2086
assS'200.219.130.252'
p2087
g4
(g5
(g20
g32
g17
NN(dp2088
tp2089
Rp2090
tp2091
Rp2092
S'69.171.240.0/20'
p2093
(lp2094
(I1300752000
g59
S'20121 22356 32934'
p2095
tp2096
asS'69.171.255.0/24'
p2097
(lp2098
(I1300752000
g59
S'20121 22356 32934'
p2099
tp2100
asssS'route-views.isc'
p2101
g4
(g5
(g26
g32
g17
NN(dp2102
tp2103
Rp2104
tp2105
Rp2106
S'198.32.176.10'
p2107
g4
(g5
(g20
g32
g17
NN(dp2108
tp2109
Rp2110
tp2111
Rp2112
S'69.171.240.0/20'
p2113
(lp2114
(I1300752001
g59
S'14361 32934'
p2115
tp2116
asS'69.171.255.0/24'
p2117
(lp2118
(I1300752001
g59
S'14361 32934'
p2119
tp2120
assS'198.32.176.13'
p2121
g4
(g5
(g20
g32
g17
NN(dp2122
tp2123
Rp2124
tp2125
Rp2126
S'69.171.240.0/20'
p2127
(lp2128
(I1300752001
g59
S'4436 2914 32934 32934'
p2129
tp2130
asS'69.171.255.0/24'
p2131
(lp2132
(I1300752001
g59
S'4436 2914 32934 32934 32934 32934 32934'
p2133
tp2134
assS'198.32.176.164'
p2135
g4
(g5
(g20
g32
g17
NN(dp2136
tp2137
Rp2138
tp2139
Rp2140
S'69.171.240.0/20'
p2141
(lp2142
(I1300752001
g59
S'19151 32934'
p2143
tp2144
asS'69.171.255.0/24'
p2145
(lp2146
(I1300752001
g59
S'19151 32934'
p2147
tp2148
assS'198.32.176.14'
p2149
g4
(g5
(g20
g32
g17
NN(dp2150
tp2151
Rp2152
tp2153
Rp2154
S'69.171.240.0/20'
p2155
(lp2156
(I1300752001
g59
S'2914 32934 32934'
p2157
tp2158
asS'69.171.255.0/24'
p2159
(lp2160
(I1300752001
g59
S'2914 32934 32934 32934 32934 32934'
p2161
tp2162
assS'198.32.176.74'
p2163
g4
(g5
(g20
g32
g17
NN(dp2164
tp2165
Rp2166
tp2167
Rp2168
S'69.171.240.0/20'
p2169
(lp2170
(I1300752001
g59
S'4589 32934'
p2171
tp2172
asS'69.171.255.0/24'
p2173
(lp2174
(I1300752001
g59
S'4589 32934'
p2175
tp2176
assS'198.32.176.177'
p2177
g4
(g5
(g20
g32
g17
NN(dp2178
tp2179
Rp2180
tp2181
Rp2182
S'69.171.240.0/20'
p2183
(lp2184
(I1300752001
g59
S'7575 32934'
p2185
tp2186
asS'69.171.255.0/24'
p2187
(lp2188
(I1300752001
g59
S'7575 32934'
p2189
tp2190
assS'198.32.176.131'
p2191
g4
(g5
(g20
g32
g17
NN(dp2192
tp2193
Rp2194
tp2195
Rp2196
S'69.171.240.0/20'
p2197
(lp2198
(I1300752001
g59
S'174 3549 32934 32934'
p2199
tp2200
asS'69.171.255.0/24'
p2201
(lp2202
(I1300752001
g59
S'174 3549 32934 32934 32934 32934 32934'
p2203
tp2204
a(I1300778128
g66
S'174 4134 9318 32934 32934 32934'
p2205
tp2206
assS'198.32.176.134'
p2207
g4
(g5
(g20
g32
g17
NN(dp2208
tp2209
Rp2210
tp2211
Rp2212
S'69.171.240.0/20'
p2213
(lp2214
(I1300752001
g59
S'4826 32934'
p2215
tp2216
asS'69.171.255.0/24'
p2217
(lp2218
(I1300752001
g59
S'4826 32934'
p2219
tp2220
assS'198.32.176.20'
p2221
g4
(g5
(g20
g32
g17
NN(dp2222
tp2223
Rp2224
tp2225
Rp2226
S'69.171.240.0/20'
p2227
(lp2228
(I1300752001
g59
S'6939 32934'
p2229
tp2230
asS'69.171.255.0/24'
p2231
(lp2232
(I1300752001
g59
S'6939 32934'
p2233
tp2234
assS'198.32.176.24'
p2235
g4
(g5
(g20
g32
g17
NN(dp2236
tp2237
Rp2238
tp2239
Rp2240
S'69.171.240.0/20'
p2241
(lp2242
(I1300752001
g59
S'2497 3356 32934 32934'
p2243
tp2244
asS'69.171.255.0/24'
p2245
(lp2246
(I1300752001
g59
S'2497 3356 32934 32934 32934 32934 32934'
p2247
tp2248
asssS'rrc03'
p2249
g4
(g5
(g26
g32
g17
NN(dp2250
tp2251
Rp2252
tp2253
Rp2254
S'195.69.144.200'
p2255
g4
(g5
(g20
g32
g17
NN(dp2256
tp2257
Rp2258
tp2259
Rp2260
S'69.171.240.0/20'
p2261
(lp2262
(I1300752000
g59
S'12859 32934'
p2263
tp2264
asS'69.171.255.0/24'
p2265
(lp2266
(I1300752000
g59
S'12859 32934'
p2267
tp2268
assS'193.111.172.5'
p2269
g4
(g5
(g20
g32
g17
NN(dp2270
tp2271
Rp2272
tp2273
Rp2274
S'69.171.240.0/20'
p2275
(lp2276
(I1300752000
g59
S'20562 32934'
p2277
tp2278
asS'69.171.255.0/24'
p2279
(lp2280
(I1300752000
g59
S'20562 32934'
p2281
tp2282
assS'195.69.145.56'
p2283
g4
(g5
(g20
g32
g17
NN(dp2284
tp2285
Rp2286
tp2287
Rp2288
S'69.171.240.0/20'
p2289
(lp2290
(I1300752000
g59
S'29686 32934'
p2291
tp2292
asS'69.171.255.0/24'
p2293
(lp2294
(I1300752000
g59
S'29686 32934'
p2295
tp2296
assS'195.69.144.94'
p2297
g4
(g5
(g20
g32
g17
NN(dp2298
tp2299
Rp2300
tp2301
Rp2302
S'69.171.240.0/20'
p2303
(lp2304
(I1300752000
g59
S'12989 32934'
p2305
tp2306
asS'69.171.255.0/24'
p2307
(lp2308
(I1300752000
g59
S'12989 32934'
p2309
tp2310
assS'195.69.145.167'
p2311
g4
(g5
(g20
g32
g17
NN(dp2312
tp2313
Rp2314
tp2315
Rp2316
S'69.171.240.0/20'
p2317
(lp2318
(I1300752000
g59
S'6453 3356 32934 32934'
p2319
tp2320
asS'69.171.255.0/24'
p2321
(lp2322
(I1300752000
g59
S'6453 3356 32934 32934 32934 32934 32934'
p2323
tp2324
assS'193.239.116.17'
p2325
g4
(g5
(g20
g32
g17
NN(dp2326
tp2327
Rp2328
tp2329
Rp2330
S'69.171.240.0/20'
p2331
(lp2332
(I1300752000
g59
S'20562 32934'
p2333
tp2334
asS'69.171.255.0/24'
p2335
(lp2336
(I1300752000
g59
S'20562 32934'
p2337
tp2338
assS'195.69.144.34'
p2339
g4
(g5
(g20
g32
g17
NN(dp2340
tp2341
Rp2342
tp2343
Rp2344
S'69.171.240.0/20'
p2345
(lp2346
(I1300752000
g59
S'1103 32934'
p2347
tp2348
asS'69.171.255.0/24'
p2349
(lp2350
(I1300752000
g59
S'1103 32934'
p2351
tp2352
asssS'rrc00'
p2353
g4
(g5
(g26
g32
g17
NN(dp2354
tp2355
Rp2356
tp2357
Rp2358
S'91.103.24.2'
p2359
g4
(g5
(g20
g32
g17
NN(dp2360
tp2361
Rp2362
tp2363
Rp2364
S'69.171.240.0/20'
p2365
(lp2366
(I1300752000
g59
S'42109 41965 41877 3356 32934 32934'
p2367
tp2368
asS'69.171.255.0/24'
p2369
(lp2370
(I1300752000
g59
S'42109 41965 41877 3356 32934 32934 32934 32934 32934'
p2371
tp2372
assS'193.136.5.1'
p2373
g4
(g5
(g20
g32
g17
NN(dp2374
tp2375
Rp2376
tp2377
Rp2378
S'69.171.240.0/20'
p2379
(lp2380
(I1300752000
g59
S'1930 20965 1299 32934'
p2381
tp2382
asS'69.171.255.0/24'
p2383
(lp2384
(I1300752000
g59
S'1930 20965 1299 32934'
p2385
tp2386
assS'218.189.6.2'
p2387
g4
(g5
(g20
g32
g17
NN(dp2388
tp2389
Rp2390
tp2391
Rp2392
S'69.171.240.0/20'
p2393
(lp2394
(I1300752000
g59
S'9304 32934'
p2395
tp2396
asS'69.171.255.0/24'
p2397
(lp2398
(I1300752000
g59
S'9304 32934'
p2399
tp2400
assS'193.0.0.56'
p2401
g4
(g5
(g20
g32
g17
NN(dp2402
tp2403
Rp2404
tp2405
Rp2406
S'69.171.240.0/20'
p2407
(lp2408
(I1300752000
g59
S'3333 8218 32934'
p2409
tp2410
asS'69.171.255.0/24'
p2411
(lp2412
(I1300752000
g59
S'3333 8218 32934'
p2413
tp2414
assS'202.12.28.1'
p2415
g4
(g5
(g20
g32
g17
NN(dp2416
tp2417
Rp2418
tp2419
Rp2420
S'69.171.240.0/20'
p2421
(lp2422
(I1300752000
g59
S'4777 2516 3549 32934 32934'
p2423
tp2424
asS'69.171.255.0/24'
p2425
(lp2426
(I1300752000
g59
S'4777 2516 3549 32934 32934 32934 32934 32934'
p2427
tp2428
assS'46.227.200.68'
p2429
g4
(g5
(g20
g32
g17
NN(dp2430
tp2431
Rp2432
tp2433
Rp2434
S'69.171.240.0/20'
p2435
(lp2436
(I1300752000
g59
S'41495 39757 32934'
p2437
tp2438
asS'69.171.255.0/24'
p2439
(lp2440
(I1300752000
g59
S'41495 39757 32934'
p2441
tp2442
assS'12.0.1.63'
p2443
g4
(g5
(g20
g32
g17
NN(dp2444
tp2445
Rp2446
tp2447
Rp2448
S'69.171.240.0/20'
p2449
(lp2450
(I1300752000
g59
S'7018 3356 32934 32934'
p2451
tp2452
asS'69.171.255.0/24'
p2453
(lp2454
(I1300752000
g59
S'7018 3356 32934 32934 32934 32934 32934'
p2455
tp2456
a(I1300778106
g66
S'7018 4134 9318 32934 32934 32934'
p2457
tp2458
assS'203.119.76.3'
p2459
g4
(g5
(g20
g32
g17
NN(dp2460
tp2461
Rp2462
tp2463
Rp2464
S'69.171.240.0/20'
p2465
(lp2466
(I1300752000
g59
S'4608 1221 4637 32934'
p2467
tp2468
asS'69.171.255.0/24'
p2469
(lp2470
(I1300752000
g59
S'4608 1221 4637 32934'
p2471
tp2472
assS'213.200.87.254'
p2473
g4
(g5
(g20
g32
g17
NN(dp2474
tp2475
Rp2476
tp2477
Rp2478
S'69.171.240.0/20'
p2479
(lp2480
(I1300752000
g59
S'3257 3549 32934 32934'
p2481
tp2482
asS'69.171.255.0/24'
p2483
(lp2484
(I1300752000
g59
S'3257 3549 32934 32934 32934 32934 32934'
p2485
tp2486
a(I1300778107
g66
S'3257 4134 9318 32934 32934 32934'
p2487
tp2488
assS'212.25.27.44'
p2489
g4
(g5
(g20
g32
g17
NN(dp2490
tp2491
Rp2492
tp2493
Rp2494
S'69.171.240.0/20'
p2495
(lp2496
(I1300752000
g59
S'8758 13030 32934'
p2497
tp2498
asS'69.171.255.0/24'
p2499
(lp2500
(I1300752000
g59
S'8758 13030 32934'
p2501
tp2502
assS'195.47.235.100'
p2503
g4
(g5
(g20
g32
g17
NN(dp2504
tp2505
Rp2506
tp2507
Rp2508
S'69.171.240.0/20'
p2509
(lp2510
(I1300752000
g59
S'6881 29208 32934'
p2511
tp2512
asS'69.171.255.0/24'
p2513
(lp2514
(I1300752000
g59
S'6881 29208 32934'
p2515
tp2516
assS'208.51.134.248'
p2517
g4
(g5
(g20
g32
g17
NN(dp2518
tp2519
Rp2520
tp2521
Rp2522
S'69.171.240.0/20'
p2523
(lp2524
(I1300752000
g59
S'3549 32934 32934'
p2525
tp2526
asS'69.171.255.0/24'
p2527
(lp2528
(I1300752000
g59
S'3549 32934 32934 32934 32934 32934'
p2529
tp2530
asssS'rrc01'
p2531
g4
(g5
(g26
g32
g17
NN(dp2532
tp2533
Rp2534
tp2535
Rp2536
S'195.66.224.151'
p2537
g4
(g5
(g20
g32
g17
NN(dp2538
tp2539
Rp2540
tp2541
Rp2542
S'69.171.240.0/20'
p2543
(lp2544
(I1300751994
g59
S'8468 32934'
p2545
tp2546
asS'69.171.255.0/24'
p2547
(lp2548
(I1300751994
g59
S'8468 32934'
p2549
tp2550
assS'195.66.225.159'
p2551
g4
(g5
(g20
g32
g17
NN(dp2552
tp2553
Rp2554
tp2555
Rp2556
S'69.171.240.0/20'
p2557
(lp2558
(I1300751994
g59
S'42708 32934'
p2559
tp2560
asS'69.171.255.0/24'
p2561
(lp2562
(I1300751994
g59
S'42708 32934'
p2563
tp2564
assS'195.66.224.35'
p2565
g4
(g5
(g20
g32
g17
NN(dp2566
tp2567
Rp2568
tp2569
Rp2570
S'69.171.240.0/20'
p2571
(lp2572
(I1300751994
g59
S'6067 3356 32934 32934'
p2573
tp2574
asS'69.171.255.0/24'
p2575
(lp2576
(I1300751994
g59
S'6067 3356 32934 32934 32934 32934 32934'
p2577
tp2578
assS'195.66.224.68'
p2579
g4
(g5
(g20
g32
g17
NN(dp2580
tp2581
Rp2582
tp2583
Rp2584
S'69.171.240.0/20'
p2585
(lp2586
(I1300750475
g66
S'30844 32934'
p2587
tp2588
asS'69.171.255.0/24'
p2589
(lp2590
(I1300750475
g66
S'30844 32934'
p2591
tp2592
assS'195.66.226.138'
p2593
g4
(g5
(g20
g32
g17
NN(dp2594
tp2595
Rp2596
tp2597
Rp2598
S'69.171.240.0/20'
p2599
(lp2600
(I1300751994
g59
S'2914 32934 32934'
p2601
tp2602
asS'69.171.255.0/24'
p2603
(lp2604
(I1300751994
g59
S'2914 32934 32934 32934 32934 32934'
p2605
tp2606
assS'195.66.225.2'
p2607
g4
(g5
(g20
g32
g17
NN(dp2608
tp2609
Rp2610
tp2611
Rp2612
S'69.171.240.0/20'
p2613
(lp2614
(I1300751994
g59
S'39202 174 2914 32934 32934'
p2615
tp2616
asS'69.171.255.0/24'
p2617
(lp2618
(I1300751994
g59
S'39202 174 2914 32934 32934 32934 32934 32934'
p2619
tp2620
a(I1300778117
g66
S'39202 174 4134 9318 32934 32934 32934'
p2621
tp2622
assS'195.66.224.121'
p2623
g4
(g5
(g20
g32
g17
NN(dp2624
tp2625
Rp2626
tp2627
Rp2628
S'69.171.240.0/20'
p2629
(lp2630
(I1300751994
g59
S'8419 3356 32934 32934'
p2631
tp2632
a(I1300778455
g66
S'8419 9318 32934 32934 32934'
p2633
tp2634
a(I1300778701
g66
S'8419 3356 32934 32934'
p2635
tp2636
asS'69.171.255.0/24'
p2637
(lp2638
(I1300751994
g59
S'8419 3356 32934 32934 32934 32934 32934'
p2639
tp2640
a(I1300778118
g66
S'8419 6461 4134 9318 32934 32934 32934'
p2641
tp2642
a(I1300778455
g66
S'8419 9318 32934 32934 32934'
p2643
tp2644
a(I1300778701
g66
S'8419 6461 4134 9318 32934 32934 32934'
p2645
tp2646
assS'195.66.224.132'
p2647
g4
(g5
(g20
g32
g17
NN(dp2648
tp2649
Rp2650
tp2651
Rp2652
S'69.171.240.0/20'
p2653
(lp2654
(I1300751994
g59
S'29636 39326 32934'
p2655
tp2656
a(I1300778454
g66
S'29636 9318 32934 32934 32934'
p2657
tp2658
a(I1300778673
g66
S'29636 39326 32934'
p2659
tp2660
asS'69.171.255.0/24'
p2661
(lp2662
(I1300751994
g59
S'29636 39326 32934'
p2663
tp2664
a(I1300778454
g66
S'29636 9318 32934 32934 32934'
p2665
tp2666
a(I1300778673
g66
S'29636 39326 32934'
p2667
tp2668
assS'195.66.224.175'
p2669
g4
(g5
(g20
g32
g17
NN(dp2670
tp2671
Rp2672
tp2673
Rp2674
S'69.171.240.0/20'
p2675
(lp2676
(I1300751994
g59
S'13030 32934'
p2677
tp2678
asS'69.171.255.0/24'
p2679
(lp2680
(I1300751994
g59
S'13030 32934'
p2681
tp2682
assS'195.66.224.54'
p2683
g4
(g5
(g20
g32
g17
NN(dp2684
tp2685
Rp2686
tp2687
Rp2688
S'69.171.240.0/20'
p2689
(lp2690
(I1300751994
g59
S'286 3549 32934 32934'
p2691
tp2692
asS'69.171.255.0/24'
p2693
(lp2694
(I1300751994
g59
S'286 3549 32934 32934 32934 32934 32934'
p2695
tp2696
a(I1300778109
g66
S'286 4134 9318 32934 32934 32934'
p2697
tp2698
assS'195.66.224.111'
p2699
g4
(g5
(g20
g32
g17
NN(dp2700
tp2701
Rp2702
tp2703
Rp2704
S'69.171.240.0/20'
p2705
(lp2706
(I1300751994
g59
S'8607 32934'
p2707
tp2708
asS'69.171.255.0/24'
p2709
(lp2710
(I1300751994
g59
S'8607 32934'
p2711
tp2712
asssS'rrc06'
p2713
g4
(g5
(g26
g32
g17
NN(dp2714
tp2715
Rp2716
tp2717
Rp2718
S'202.249.2.169'
p2719
g4
(g5
(g20
g32
g17
NN(dp2720
tp2721
Rp2722
tp2723
Rp2724
S'69.171.240.0/20'
p2725
(lp2726
(I1300751999
g59
S'2497 2914 32934 32934'
p2727
tp2728
asS'69.171.255.0/24'
p2729
(lp2730
(I1300751999
g59
S'2497 3549 32934 32934 32934 32934 32934'
p2731
tp2732
asssS'rrc07'
p2733
g4
(g5
(g26
g32
g17
NN(dp2734
tp2735
Rp2736
tp2737
Rp2738
S'194.68.123.157'
p2739
g4
(g5
(g20
g32
g17
NN(dp2740
tp2741
Rp2742
tp2743
Rp2744
S'69.171.240.0/20'
p2745
(lp2746
(I1300752000
g59
S'9002 32934'
p2747
tp2748
asS'69.171.255.0/24'
p2749
(lp2750
(I1300752000
g59
S'9002 32934'
p2751
tp2752
assS'194.68.123.136'
p2753
g4
(g5
(g20
g32
g17
NN(dp2754
tp2755
Rp2756
tp2757
Rp2758
S'69.171.240.0/20'
p2759
(lp2760
(I1300752000
g59
S'6667 32934'
p2761
tp2762
asS'69.171.255.0/24'
p2763
(lp2764
(I1300752000
g59
S'6667 32934'
p2765
tp2766
asssS'rrc04'
p2767
g4
(g5
(g26
g32
g17
NN(dp2768
tp2769
Rp2770
tp2771
Rp2772
S'192.65.185.142'
p2773
g4
(g5
(g20
g32
g17
NN(dp2774
tp2775
Rp2776
tp2777
Rp2778
S'69.171.240.0/20'
p2779
(lp2780
(I1300751997
g59
S'20932 3356 32934 32934'
p2781
tp2782
asS'69.171.255.0/24'
p2783
(lp2784
(I1300751997
g59
S'20932 3356 32934 32934 32934 32934 32934'
p2785
tp2786
assS'192.65.185.140'
p2787
g4
(g5
(g20
g32
g17
NN(dp2788
tp2789
Rp2790
tp2791
Rp2792
S'69.171.240.0/20'
p2793
(lp2794
(I1300751997
g59
S'29222 3303 32934'
p2795
tp2796
asS'69.171.255.0/24'
p2797
(lp2798
(I1300751997
g59
S'29222 3303 32934'
p2799
tp2800
assS'192.65.185.157'
p2801
g4
(g5
(g20
g32
g17
NN(dp2802
tp2803
Rp2804
tp2805
Rp2806
S'69.171.240.0/20'
p2807
(lp2808
(I1300751997
g59
S'12350 32934'
p2809
tp2810
asS'69.171.255.0/24'
p2811
(lp2812
(I1300751997
g59
S'12350 32934'
p2813
tp2814
assS'192.65.185.243'
p2815
g4
(g5
(g20
g32
g17
NN(dp2816
tp2817
Rp2818
tp2819
Rp2820
S'69.171.240.0/20'
p2821
(lp2822
(I1300751997
g59
S'35054 2914 32934 32934'
p2823
tp2824
asS'69.171.255.0/24'
p2825
(lp2826
(I1300751997
g59
S'35054 2914 32934 32934 32934 32934 32934'
p2827
tp2828
assS'192.65.185.244'
p2829
g4
(g5
(g20
g32
g17
NN(dp2830
tp2831
Rp2832
tp2833
Rp2834
S'69.171.240.0/20'
p2835
(lp2836
(I1300751997
g59
S'25091 13030 32934'
p2837
tp2838
asS'69.171.255.0/24'
p2839
(lp2840
(I1300751997
g59
S'25091 13030 32934'
p2841
tp2842
assS'192.65.185.3'
p2843
g4
(g5
(g20
g32
g17
NN(dp2844
tp2845
Rp2846
tp2847
Rp2848
S'69.171.240.0/20'
p2849
(lp2850
(I1300751997
g59
S'513 6730 6730 32934'
p2851
tp2852
asS'69.171.255.0/24'
p2853
(lp2854
(I1300751997
g59
S'513 6730 6730 32934'
p2855
tp2856
asssS'rrc05'
p2857
g4
(g5
(g26
g32
g17
NN(dp2858
tp2859
Rp2860
tp2861
Rp2862
S'193.203.0.1'
p2863
g4
(g5
(g20
g32
g17
NN(dp2864
tp2865
Rp2866
tp2867
Rp2868
S'69.171.240.0/20'
p2869
(lp2870
(I1300751995
g59
S'1853 3356 32934 32934'
p2871
tp2872
asS'69.171.255.0/24'
p2873
(lp2874
(I1300751995
g59
S'1853 3356 32934 32934 32934 32934 32934'
p2875
tp2876
assS'193.203.0.88'
p2877
g4
(g5
(g20
g32
g17
NN(dp2878
tp2879
Rp2880
tp2881
Rp2882
S'69.171.240.0/20'
p2883
(lp2884
(I1300751995
g59
S'5385 6830 32934'
p2885
tp2886
asS'69.171.255.0/24'
p2887
(lp2888
(I1300751995
g59
S'5385 6830 32934'
p2889
tp2890
assS'193.203.0.157'
p2891
g4
(g5
(g20
g32
g17
NN(dp2892
tp2893
Rp2894
tp2895
Rp2896
S'69.171.240.0/20'
p2897
(lp2898
(I1300751995
g59
S'35369 8218 32934'
p2899
tp2900
asS'69.171.255.0/24'
p2901
(lp2902
(I1300751995
g59
S'35369 8218 32934'
p2903
tp2904
assS'193.203.0.21'
p2905
g4
(g5
(g20
g32
g17
NN(dp2906
tp2907
Rp2908
tp2909
Rp2910
S'69.171.240.0/20'
p2911
(lp2912
(I1300751995
g59
S'8447 32934'
p2913
tp2914
asS'69.171.255.0/24'
p2915
(lp2916
(I1300751995
g59
S'8447 32934'
p2917
tp2918
assS'193.203.0.130'
p2919
g4
(g5
(g20
g32
g17
NN(dp2920
tp2921
Rp2922
tp2923
Rp2924
S'69.171.240.0/20'
p2925
(lp2926
(I1300751995
g59
S'8596 32934'
p2927
tp2928
a(I1300757846
g66
S'8596 174 2914 32934 32934'
p2929
tp2930
a(I1300758323
g66
S'8596 32934'
p2931
tp2932
a(I1300770510
g66
S'8596 174 2914 32934 32934'
p2933
tp2934
a(I1300773046
g66
S'8596 32934'
p2935
tp2936
asS'69.171.255.0/24'
p2937
(lp2938
(I1300751995
g59
S'8596 32934'
p2939
tp2940
a(I1300757853
g66
S'8596 174 2914 32934 32934 32934 32934 32934'
p2941
tp2942
a(I1300758323
g66
S'8596 32934'
p2943
tp2944
a(I1300770516
g66
S'8596 174 2914 32934 32934 32934 32934 32934'
p2945
tp2946
a(I1300773046
g66
S'8596 32934'
p2947
tp2948
assS'193.203.0.134'
p2949
g4
(g5
(g20
g32
g17
NN(dp2950
tp2951
Rp2952
tp2953
Rp2954
S'69.171.240.0/20'
p2955
(lp2956
(I1300751995
g59
S'39912 32934'
p2957
tp2958
asS'69.171.255.0/24'
p2959
(lp2960
(I1300751995
g59
S'39912 32934'
p2961
tp2962
assS'193.203.0.97'
p2963
g4
(g5
(g20
g32
g17
NN(dp2964
tp2965
Rp2966
tp2967
Rp2968
S'69.171.240.0/20'
p2969
(lp2970
(I1300751995
g59
S'286 3549 32934 32934'
p2971
tp2972
asS'69.171.255.0/24'
p2973
(lp2974
(I1300751995
g59
S'286 3549 32934 32934 32934 32934 32934'
p2975
tp2976
a(I1300778109
g66
S'286 4134 9318 32934 32934 32934'
p2977
tp2978
assS'193.203.0.91'
p2979
g4
(g5
(g20
g32
g17
NN(dp2980
tp2981
Rp2982
tp2983
Rp2984
S'69.171.240.0/20'
p2985
(lp2986
(I1300751995
g59
S'13237 3356 32934 32934'
p2987
tp2988
asS'69.171.255.0/24'
p2989
(lp2990
(I1300751995
g59
S'13237 3356 32934 32934 32934 32934 32934'
p2991
tp2992
a(I1300778102
g66
S'13237 3257 4134 9318 32934 32934 32934'
p2993
tp2994
assS'193.203.0.139'
p2995
g4
(g5
(g20
g32
g17
NN(dp2996
tp2997
Rp2998
tp2999
Rp3000
S'69.171.240.0/20'
p3001
(lp3002
(I1300750842
S'withdrawal'
p3003
g18
tp3004
a(I1300751032
g66
S'3303 32934'
p3005
tp3006
asS'69.171.255.0/24'
p3007
(lp3008
(I1300750842
g3003
g18
tp3009
a(I1300751032
g66
S'3303 32934'
p3010
tp3011
assssS'title'
p3012
S'facebook_1'
p3013
sS'start_time'
p3014
S'2011-03-22T07:15:00'
p3015
sS'no'
p3016
S'19'
p3017
sS'detail'
p3018
S'moas'
p3019
sS'global_paths'
p3020
(dp3021
g57
(lp3022
((lp3023
S'8758'
p3024
aS'13030'
p3025
aS'32934'
p3026
a(lp3027
F9.59015939414403e-06
aF0.000326775555577134
aF7.71555684953329e-06
atp3028
a((lp3029
S'9304'
p3030
aS'32934'
p3031
a(lp3032
F0.00222042663530368
aF7.71555684953329e-06
atp3033
a((lp3034
S'16735'
p3035
aS'3549'
p3036
aS'32934'
p3037
a(lp3038
F0.000524661708636102
aF0.071835309375535
aF7.71555684953329e-06
atp3039
a((lp3040
S'8928'
p3041
aS'32934'
p3042
a(lp3043
F0.00381065256523448
aF7.71555684953329e-06
atp3044
a((lp3045
S'12779'
p3046
aS'3549'
p3047
aS'32934'
p3048
a(lp3049
F6.15345256387958e-05
aF0.071835309375535
aF7.71555684953329e-06
atp3050
a((lp3051
S'25152'
p3052
aS'23148'
p3053
aS'32934'
p3054
a(lp3055
F9.47669993000467e-07
aF0.000704580405988575
aF7.71555684953329e-06
atp3056
a((lp3057
S'3549'
p3058
aS'32934'
p3059
a(lp3060
F0.071835309375535
aF7.71555684953329e-06
atp3061
a((lp3062
S'6461'
p3063
aS'3549'
p3064
aS'32934'
p3065
a(lp3066
F0.00671376830603192
aF0.071835309375535
aF7.71555684953329e-06
atp3067
a((lp3068
S'20562'
p3069
aS'32934'
p3070
a(lp3071
F2.91509155893349e-05
aF7.71555684953329e-06
atp3072
a((lp3073
S'42109'
p3074
aS'41965'
p3075
aS'41877'
p3076
aS'3356'
p3077
aS'32934'
p3078
a(lp3079
F5.38189752051041e-06
aF1.52599258663639e-05
aF2.6087087732646e-05
aF0.162200487748635
aF7.71555684953329e-06
atp3080
a((lp3081
S'852'
p3082
aS'32934'
p3083
a(lp3084
F0.00303570169651502
aF7.71555684953329e-06
atp3085
a((lp3086
S'35369'
p3087
aS'8218'
p3088
aS'32934'
p3089
a(lp3090
F3.09006562443321e-05
aF0.000580659277351894
aF7.71555684953329e-06
atp3091
a((lp3092
S'16559'
p3093
aS'32934'
p3094
a(lp3095
F9.57094714634013e-06
aF7.71555684953329e-06
atp3096
a((lp3097
S'4608'
p3098
aS'1221'
p3099
aS'4637'
p3100
aS'32934'
p3101
a(lp3102
F2.67930721631024e-06
aF0.00590486537346703
aF0.00686605481738394
aF7.71555684953329e-06
atp3103
a((lp3104
S'20932'
p3105
aS'3356'
p3106
aS'32934'
p3107
a(lp3108
F4.57189957200178e-06
aF0.162200487748635
aF7.71555684953329e-06
atp3109
a((lp3110
S'14537'
p3111
aS'3356'
p3112
aS'32934'
p3113
a(lp3114
F7.36699023392109e-06
aF0.162200487748635
aF7.71555684953329e-06
atp3115
a((lp3116
S'1299'
p3117
aS'3356'
p3118
aS'32934'
p3119
a(lp3120
F0.0335721039653728
aF0.162200487748635
aF7.71555684953329e-06
atp3121
a((lp3122
S'3130'
p3123
aS'1239'
p3124
aS'3356'
p3125
aS'32934'
p3126
a(lp3127
F4.83306157935933e-05
aF0.0445347482285944
aF0.162200487748635
aF7.71555684953329e-06
atp3128
a((lp3129
S'8426'
p3130
aS'3549'
p3131
aS'32934'
p3132
a(lp3133
F0.000400061863221767
aF0.071835309375535
aF7.71555684953329e-06
atp3134
a((lp3135
S'8447'
p3136
aS'32934'
p3137
a(lp3138
F0.00147299389342183
aF7.71555684953329e-06
atp3139
a((lp3140
S'11537'
p3141
aS'32934'
p3142
a(lp3143
F0.0033552798878698
aF7.71555684953329e-06
atp3144
a((lp3145
S'3267'
p3146
aS'9002'
p3147
aS'32934'
p3148
a(lp3149
F0.000395192632119038
aF0.00164820452408249
aF7.71555684953329e-06
atp3150
a((lp3151
S'39792'
p3152
aS'32934'
p3153
a(lp3154
F0.0001155148133532
aF7.71555684953329e-06
atp3155
a((lp3156
S'19089'
p3157
aS'7162'
p3158
aS'3549'
p3159
aS'32934'
p3160
a(lp3161
F1.55410480204534e-05
aF8.6741239197871e-05
aF0.071835309375535
aF7.71555684953329e-06
atp3162
a((lp3163
S'29686'
p3164
aS'32934'
p3165
a(lp3166
F2.11474565671264e-05
aF7.71555684953329e-06
atp3167
a((lp3168
S'1239'
p3169
aS'3356'
p3170
aS'32934'
p3171
a(lp3172
F0.0445347482285944
aF0.162200487748635
aF7.71555684953329e-06
atp3173
a((lp3174
S'3303'
p3175
aS'32934'
p3176
a(lp3177
F0.00215906718150794
aF7.71555684953329e-06
atp3178
a((lp3179
S'31323'
p3180
aS'1299'
p3181
aS'32934'
p3182
a(lp3183
F1.52123782686544e-05
aF0.0335721039653728
aF7.71555684953329e-06
atp3184
a((lp3185
S'29449'
p3186
aS'8928'
p3187
aS'32934'
p3188
a(lp3189
F1.20016902927153e-05
aF0.00381065256523448
aF7.71555684953329e-06
atp3190
a((lp3191
S'4777'
p3192
aS'2516'
p3193
aS'3549'
p3194
aS'32934'
p3195
a(lp3196
F2.11483464613766e-07
aF0.0142027860324608
aF0.071835309375535
aF7.71555684953329e-06
atp3197
a((lp3198
S'1853'
p3199
aS'3356'
p3200
aS'32934'
p3201
a(lp3202
F0.000653010807579451
aF0.162200487748635
aF7.71555684953329e-06
atp3203
a((lp3204
S'1299'
p3205
aS'32934'
p3206
a(lp3207
F0.0335721039653728
aF7.71555684953329e-06
atp3208
a((lp3209
S'11686'
p3210
aS'11164'
p3211
aS'32934'
p3212
a(lp3213
F0.000212320888500085
aF0.00837508921813973
aF7.71555684953329e-06
atp3214
a((lp3215
S'6079'
p3216
aS'32934'
p3217
a(lp3218
F0.000487898178713442
aF7.71555684953329e-06
atp3219
a((lp3220
S'812'
p3221
aS'32934'
p3222
a(lp3223
F0.00169368157875549
aF7.71555684953329e-06
atp3224
a((lp3225
S'19151'
p3226
aS'32934'
p3227
a(lp3228
F0.00557388733957344
aF7.71555684953329e-06
atp3229
a((lp3230
S'286'
p3231
aS'3549'
p3232
aS'32934'
p3233
a(lp3234
F0.00493231102784247
aF0.071835309375535
aF7.71555684953329e-06
atp3235
a((lp3236
S'39912'
p3237
aS'32934'
p3238
a(lp3239
F0.00013398279920406
aF7.71555684953329e-06
atp3240
a((lp3241
S'8607'
p3242
aS'32934'
p3243
a(lp3244
F3.33861033731246e-05
aF7.71555684953329e-06
atp3245
a((lp3246
S'6881'
p3247
aS'29208'
p3248
aS'32934'
p3249
a(lp3250
F1.26214963773205e-06
aF0.000231531533557239
aF7.71555684953329e-06
atp3251
a((lp3252
S'5056'
p3253
aS'3356'
p3254
aS'32934'
p3255
a(lp3256
F0.000219726650002874
aF0.162200487748635
aF7.71555684953329e-06
atp3257
a((lp3258
S'5385'
p3259
aS'6830'
p3260
aS'32934'
p3261
a(lp3262
F3.90780067619987e-05
aF0.00458344639945717
aF7.71555684953329e-06
atp3263
a((lp3264
S'8468'
p3265
aS'32934'
p3266
a(lp3267
F0.000218080931353079
aF7.71555684953329e-06
atp3268
a((lp3269
S'3356'
p3270
aS'32934'
p3271
a(lp3272
F0.162200487748635
aF7.71555684953329e-06
atp3273
a((lp3274
S'1668'
p3275
aS'3356'
p3276
aS'32934'
p3277
a(lp3278
F0.00251404168485292
aF0.162200487748635
aF7.71555684953329e-06
atp3279
a((lp3280
S'8402'
p3281
aS'3549'
p3282
aS'32934'
p3283
a(lp3284
F0.000524472376680451
aF0.071835309375535
aF7.71555684953329e-06
atp3285
a((lp3286
S'8331'
p3287
aS'42861'
p3288
aS'32934'
p3289
a(lp3290
F3.35489780158003e-05
aF4.90949923041244e-05
aF7.71555684953329e-06
atp3291
a((lp3292
S'12989'
p3293
aS'32934'
p3294
a(lp3295
F0.000627149481766012
aF7.71555684953329e-06
atp3296
a((lp3297
S'2152'
p3298
aS'32934'
p3299
a(lp3300
F0.00978672653198769
aF7.71555684953329e-06
atp3301
a((lp3302
S'5413'
p3303
aS'32934'
p3304
a(lp3305
F0.000234510967524211
aF7.71555684953329e-06
atp3306
a((lp3307
S'7018'
p3308
aS'3356'
p3309
aS'32934'
p3310
a(lp3311
F0.0571471388118949
aF0.162200487748635
aF7.71555684953329e-06
atp3312
a((lp3313
S'34288'
p3314
aS'32934'
p3315
a(lp3316
F9.74090456942071e-06
aF7.71555684953329e-06
atp3317
a((lp3318
S'3333'
p3319
aS'8218'
p3320
aS'32934'
p3321
a(lp3322
F1.92915831240836e-06
aF0.000580659277351894
aF7.71555684953329e-06
atp3323
a((lp3324
S'8419'
p3325
aS'9318'
p3326
aS'32934'
p3327
a(lp3328
F2.35618151987597e-05
aF0.00964203178723587
aF7.71555684953329e-06
atp3329
a((lp3330
S'38883'
p3331
aS'4826'
p3332
aS'32934'
p3333
a(lp3334
F1.28592614158888e-06
aF0.000863827708565162
aF7.71555684953329e-06
atp3335
a((lp3336
S'12637'
p3337
aS'3549'
p3338
aS'32934'
p3339
a(lp3340
F2.20507971369421e-05
aF0.071835309375535
aF7.71555684953329e-06
atp3341
a((lp3342
S'11666'
p3343
aS'32934'
p3344
a(lp3345
F5.10330717716341e-05
aF7.71555684953329e-06
atp3346
a((lp3347
S'6939'
p3348
aS'32934'
p3349
a(lp3350
F0.0161529281784453
aF7.71555684953329e-06
atp3351
a((lp3352
S'9189'
p3353
aS'8422'
p3354
aS'32934'
p3355
a(lp3356
F2.476364188086e-05
aF0.000285951775322229
aF7.71555684953329e-06
atp3357
a((lp3358
S'8492'
p3359
aS'32934'
p3360
a(lp3361
F0.000102050483602072
aF7.71555684953329e-06
atp3362
a((lp3363
S'39202'
p3364
aS'174'
p3365
aS'2914'
p3366
aS'32934'
p3367
a(lp3368
F1.71456818878518e-06
aF0.0410146568051113
aF0.0397412578082082
aF7.71555684953329e-06
atp3369
a((lp3370
S'22548'
p3371
aS'10429'
p3372
aS'12956'
p3373
aS'2914'
p3374
aS'32934'
p3375
a(lp3376
F2.80418145453395e-06
aF0.00272613269298881
aF0.014413427482596
aF0.0397412578082082
aF7.71555684953329e-06
atp3377
a((lp3378
S'8419'
p3379
aS'3356'
p3380
aS'32934'
p3381
a(lp3382
F2.35618151987597e-05
aF0.162200487748635
aF7.71555684953329e-06
atp3383
a((lp3384
S'2497'
p3385
aS'3356'
p3386
aS'32934'
p3387
a(lp3388
F0.00523726250161144
aF0.162200487748635
aF7.71555684953329e-06
atp3389
a((lp3390
S'7500'
p3391
aS'2497'
p3392
aS'2914'
p3393
aS'32934'
p3394
a(lp3395
F3.31421013339519e-07
aF0.00523726250161144
aF0.0397412578082082
aF7.71555684953329e-06
atp3396
a((lp3397
S'35054'
p3398
aS'2914'
p3399
aS'32934'
p3400
a(lp3401
F9.32520956779577e-07
aF0.0397412578082082
aF7.71555684953329e-06
atp3402
a((lp3403
S'28220'
p3404
aS'4230'
p3405
aS'2914'
p3406
aS'32934'
p3407
a(lp3408
F4.2061376425344e-05
aF0.00346669581837684
aF0.0397412578082082
aF7.71555684953329e-06
atp3409
a((lp3410
S'174'
p3411
aS'3549'
p3412
aS'32934'
p3413
a(lp3414
F0.0410146568051113
aF0.071835309375535
aF7.71555684953329e-06
atp3415
a((lp3416
S'2914'
p3417
aS'32934'
p3418
a(lp3419
F0.0397412578082082
aF7.71555684953329e-06
atp3420
a((lp3421
S'48285'
p3422
aS'16150'
p3423
aS'32934'
p3424
a(lp3425
F1.44016146252333e-06
aF0.000196375017824541
aF7.71555684953329e-06
atp3426
a((lp3427
S'31500'
p3428
aS'32934'
p3429
a(lp3430
F6.74935633245151e-05
aF7.71555684953329e-06
atp3431
a((lp3432
S'8596'
p3433
aS'174'
p3434
aS'2914'
p3435
aS'32934'
p3436
a(lp3437
F4.08340642426301e-06
aF0.0410146568051113
aF0.0397412578082082
aF7.71555684953329e-06
atp3438
a((lp3439
S'1280'
p3440
aS'32934'
p3441
a(lp3442
F0.00010767345557095
aF7.71555684953329e-06
atp3443
a((lp3444
S'6539'
p3445
aS'32934'
p3446
a(lp3447
F0.000322317810183371
aF7.71555684953329e-06
atp3448
a((lp3449
S'3561'
p3450
aS'3549'
p3451
aS'32934'
p3452
a(lp3453
F0.00825727040984319
aF0.071835309375535
aF7.71555684953329e-06
atp3454
a((lp3455
S'2895'
p3456
aS'3267'
p3457
aS'9002'
p3458
aS'32934'
p3459
a(lp3460
F4.41536888108164e-05
aF0.000395192632119038
aF0.00164820452408249
aF7.71555684953329e-06
atp3461
a((lp3462
S'10026'
p3463
aS'32934'
p3464
a(lp3465
F0.015326288357354
aF7.71555684953329e-06
atp3466
a((lp3467
S'39821'
p3468
aS'9002'
p3469
aS'32934'
p3470
a(lp3471
F8.57284094392588e-07
aF0.00164820452408249
aF7.71555684953329e-06
atp3472
a((lp3473
S'12350'
p3474
aS'32934'
p3475
a(lp3476
F0.000178369172118203
aF7.71555684953329e-06
atp3477
a((lp3478
S'6453'
p3479
aS'3356'
p3480
aS'32934'
p3481
a(lp3482
F0.0313131228741157
aF0.162200487748635
aF7.71555684953329e-06
atp3483
a((lp3484
S'53070'
p3485
aS'16735'
p3486
aS'3549'
p3487
aS'32934'
p3488
a(lp3489
F4.28624260760561e-06
aF0.000524661708636102
aF0.071835309375535
aF7.71555684953329e-06
atp3490
a((lp3491
S'680'
p3492
aS'1299'
p3493
aS'32934'
p3494
a(lp3495
F0.00401922115761135
aF0.0335721039653728
aF7.71555684953329e-06
atp3496
a((lp3497
S'13030'
p3498
aS'32934'
p3499
a(lp3500
F0.000326775555577134
aF7.71555684953329e-06
atp3501
a((lp3502
S'701'
p3503
aS'3356'
p3504
aS'32934'
p3505
a(lp3506
F0.0415470303321891
aF0.162200487748635
aF7.71555684953329e-06
atp3507
a((lp3508
S'6067'
p3509
aS'3356'
p3510
aS'32934'
p3511
a(lp3512
F1.73888515319236e-05
aF0.162200487748635
aF7.71555684953329e-06
atp3513
a((lp3514
S'29222'
p3515
aS'3303'
p3516
aS'32934'
p3517
a(lp3518
F5.14370456635553e-06
aF0.00215906718150794
aF7.71555684953329e-06
atp3519
a((lp3520
S'1221'
p3521
aS'4637'
p3522
aS'32934'
p3523
a(lp3524
F0.00590486537346703
aF0.00686605481738394
aF7.71555684953329e-06
atp3525
a((lp3526
S'29636'
p3527
aS'9318'
p3528
aS'32934'
p3529
a(lp3530
F4.49555788954413e-06
aF0.00964203178723587
aF7.71555684953329e-06
atp3531
a((lp3532
S'30844'
p3533
aS'32934'
p3534
a(lp3535
F1.83008792344855e-05
aF7.71555684953329e-06
atp3536
a((lp3537
S'3257'
p3538
aS'3549'
p3539
aS'32934'
p3540
a(lp3541
F0.0401925604483201
aF0.071835309375535
aF7.71555684953329e-06
atp3542
a((lp3543
S'25091'
p3544
aS'13030'
p3545
aS'32934'
p3546
a(lp3547
F4.62814862993862e-06
aF0.000326775555577134
aF7.71555684953329e-06
atp3548
a((lp3549
S'293'
p3550
aS'2914'
p3551
aS'32934'
p3552
a(lp3553
F0.00102342904236483
aF0.0397412578082082
aF7.71555684953329e-06
atp3554
a((lp3555
S'4589'
p3556
aS'32934'
p3557
a(lp3558
F0.00292911121980029
aF7.71555684953329e-06
atp3559
a((lp3560
S'1930'
p3561
aS'20965'
p3562
aS'1299'
p3563
aS'32934'
p3564
a(lp3565
F0.000161404986875987
aF0.00241627136189964
aF0.0335721039653728
aF7.71555684953329e-06
atp3566
a((lp3567
S'6762'
p3568
aS'2914'
p3569
aS'32934'
p3570
a(lp3571
F0.0141938626050535
aF0.0397412578082082
aF7.71555684953329e-06
atp3572
a((lp3573
S'6762'
p3574
aS'3549'
p3575
aS'32934'
p3576
a(lp3577
F0.0141938626050535
aF0.071835309375535
aF7.71555684953329e-06
atp3578
a((lp3579
S'44444'
p3580
aS'32934'
p3581
a(lp3582
F1.97768478620422e-06
aF7.71555684953329e-06
atp3583
a((lp3584
S'293'
p3585
aS'3356'
p3586
aS'32934'
p3587
a(lp3588
F0.00102342904236483
aF0.162200487748635
aF7.71555684953329e-06
atp3589
a((lp3590
S'28138'
p3591
aS'16735'
p3592
aS'3549'
p3593
aS'32934'
p3594
a(lp3595
F1.71456818878518e-06
aF0.000524661708636102
aF0.071835309375535
aF7.71555684953329e-06
atp3596
a((lp3597
S'38809'
p3598
aS'703'
p3599
aS'701'
p3600
aS'2914'
p3601
aS'32934'
p3602
a(lp3603
F0.000133152465967229
aF0.00103896902728138
aF0.0415470303321891
aF0.0397412578082082
aF7.71555684953329e-06
atp3604
a((lp3605
S'28220'
p3606
aS'12956'
p3607
aS'2914'
p3608
aS'32934'
p3609
a(lp3610
F4.2061376425344e-05
aF0.014413427482596
aF0.0397412578082082
aF7.71555684953329e-06
atp3611
a((lp3612
S'4436'
p3613
aS'2914'
p3614
aS'32934'
p3615
a(lp3616
F0.00119511168564979
aF0.0397412578082082
aF7.71555684953329e-06
atp3617
a((lp3618
S'20632'
p3619
aS'9002'
p3620
aS'32934'
p3621
a(lp3622
F0.000119169290620077
aF0.00164820452408249
aF7.71555684953329e-06
atp3623
a((lp3624
S'20121'
p3625
aS'22356'
p3626
aS'32934'
p3627
a(lp3628
I0
aF4.02510338654536e-05
aF7.71555684953329e-06
atp3629
a((lp3630
S'28289'
p3631
aS'53131'
p3632
aS'16735'
p3633
aS'3549'
p3634
aS'32934'
p3635
a(lp3636
F2.57185228317776e-06
aF9.43012503831846e-06
aF0.000524661708636102
aF0.071835309375535
aF7.71555684953329e-06
atp3637
a((lp3638
S'6667'
p3639
aS'32934'
p3640
a(lp3641
F0.00166560298543088
aF7.71555684953329e-06
atp3642
a((lp3643
S'13237'
p3644
aS'3356'
p3645
aS'32934'
p3646
a(lp3647
F0.00121899513808415
aF0.162200487748635
aF7.71555684953329e-06
atp3648
a((lp3649
S'51185'
p3650
aS'8220'
p3651
aS'32934'
p3652
a(lp3653
F8.5740002283898e-07
aF0.00162041373838679
aF7.71555684953329e-06
atp3654
a((lp3655
S'29636'
p3656
aS'39326'
p3657
aS'32934'
p3658
a(lp3659
F4.49555788954413e-06
aF7.74098141438345e-05
aF7.71555684953329e-06
atp3660
a((lp3661
S'42708'
p3662
aS'32934'
p3663
a(lp3664
F3.6958674615648e-05
aF7.71555684953329e-06
atp3665
a((lp3666
S'22691'
p3667
aS'8001'
p3668
aS'32934'
p3669
a(lp3670
F1.46813521612981e-05
aF0.000226087275624815
aF7.71555684953329e-06
atp3671
a((lp3672
S'8001'
p3673
aS'32934'
p3674
a(lp3675
F0.000226087275624815
aF7.71555684953329e-06
atp3676
a((lp3677
S'3561'
p3678
aS'3356'
p3679
aS'32934'
p3680
a(lp3681
F0.00825727040984319
aF0.162200487748635
aF7.71555684953329e-06
atp3682
a((lp3683
S'41095'
p3684
aS'32934'
p3685
a(lp3686
F5.24196213152513e-05
aF7.71555684953329e-06
atp3687
a((lp3688
S'14361'
p3689
aS'32934'
p3690
a(lp3691
F5.84119196678973e-05
aF7.71555684953329e-06
atp3692
a((lp3693
S'8426'
p3694
aS'32934'
p3695
a(lp3696
F0.000400061863221767
aF7.71555684953329e-06
atp3697
a((lp3698
S'9002'
p3699
aS'32934'
p3700
a(lp3701
F0.00164820452408249
aF7.71555684953329e-06
atp3702
a((lp3703
S'6762'
p3704
aS'3356'
p3705
aS'32934'
p3706
a(lp3707
F0.0141938626050535
aF0.162200487748635
aF7.71555684953329e-06
atp3708
a((lp3709
S'41495'
p3710
aS'39757'
p3711
aS'32934'
p3712
a(lp3713
F1.39308665338795e-06
aF1.47152948942073e-05
aF7.71555684953329e-06
atp3714
a((lp3715
S'12859'
p3716
aS'32934'
p3717
a(lp3718
F2.52663003011881e-05
aF7.71555684953329e-06
atp3719
a((lp3720
S'4739'
p3721
aS'32934'
p3722
a(lp3723
F0.00036955642320434
aF7.71555684953329e-06
atp3724
a((lp3725
S'2497'
p3726
aS'2914'
p3727
aS'32934'
p3728
a(lp3729
F0.00523726250161144
aF0.0397412578082082
aF7.71555684953329e-06
atp3730
a((lp3731
S'7660'
p3732
aS'2516'
p3733
aS'3549'
p3734
aS'32934'
p3735
a(lp3736
F8.82936138526321e-05
aF0.0142027860324608
aF0.071835309375535
aF7.71555684953329e-06
atp3737
a((lp3738
S'9318'
p3739
aS'32934'
p3740
a(lp3741
F0.00964203178723587
aF7.71555684953329e-06
atp3742
a((lp3743
S'1103'
p3744
aS'32934'
p3745
a(lp3746
F0.00470817249153851
aF7.71555684953329e-06
atp3747
a((lp3748
S'8596'
p3749
aS'32934'
p3750
a(lp3751
F4.08340642426301e-06
aF7.71555684953329e-06
atp3752
a((lp3753
S'513'
p3754
aS'6730'
p3755
aS'32934'
p3756
a(lp3757
F0.000162509396125217
aF0.000702122054185039
aF7.71555684953329e-06
atp3758
a((lp3759
S'28917'
p3760
aS'32934'
p3761
a(lp3762
F0.000183745938902465
aF7.71555684953329e-06
atp3763
a((lp3764
S'7575'
p3765
aS'32934'
p3766
a(lp3767
F0.0016851390926839
aF7.71555684953329e-06
atp3768
a((lp3769
S'4826'
p3770
aS'32934'
p3771
a(lp3772
F0.000863827708565162
aF7.71555684953329e-06
atp3773
a((lp3774
S'34695'
p3775
aS'32934'
p3776
a(lp3777
F7.06118338980452e-05
aF7.71555684953329e-06
atp3778
a((lp3779
S'5056'
p3780
aS'209'
p3781
aS'3356'
p3782
aS'32934'
p3783
a(lp3784
F0.000219726650002874
aF0.0594041397190728
aF0.162200487748635
aF7.71555684953329e-06
atp3785
a((lp3786
S'8359'
p3787
aS'32934'
p3788
a(lp3789
F0.000985288835474692
aF7.71555684953329e-06
atp3790
asg62
(lp3791
((lp3792
S'8758'
p3793
aS'13030'
p3794
aS'32934'
p3795
a(lp3796
F9.59015939414403e-06
aF0.000326775555577134
aF7.71555684953329e-06
atp3797
a((lp3798
S'9304'
p3799
aS'32934'
p3800
a(lp3801
F0.00222042663530368
aF7.71555684953329e-06
atp3802
a((lp3803
S'28138'
p3804
aS'16735'
p3805
aS'3549'
p3806
aS'32934'
p3807
a(lp3808
F1.71456818878518e-06
aF0.000524661708636102
aF0.071835309375535
aF7.71555684953329e-06
atp3809
a((lp3810
S'3333'
p3811
aS'8218'
p3812
aS'32934'
p3813
a(lp3814
F1.92915831240836e-06
aF0.000580659277351894
aF7.71555684953329e-06
atp3815
a((lp3816
S'8419'
p3817
aS'3356'
p3818
aS'32934'
p3819
a(lp3820
F2.35618151987597e-05
aF0.162200487748635
aF7.71555684953329e-06
atp3821
a((lp3822
S'1239'
p3823
aS'3356'
p3824
aS'32934'
p3825
a(lp3826
F0.0445347482285944
aF0.162200487748635
aF7.71555684953329e-06
atp3827
a((lp3828
S'25152'
p3829
aS'23148'
p3830
aS'32934'
p3831
a(lp3832
F9.47669993000467e-07
aF0.000704580405988575
aF7.71555684953329e-06
atp3833
a((lp3834
S'16735'
p3835
aS'3549'
p3836
aS'32934'
p3837
a(lp3838
F0.000524661708636102
aF0.071835309375535
aF7.71555684953329e-06
atp3839
a((lp3840
S'174'
p3841
aS'3549'
p3842
aS'32934'
p3843
a(lp3844
F0.0410146568051113
aF0.071835309375535
aF7.71555684953329e-06
atp3845
a((lp3846
S'6762'
p3847
aS'3549'
p3848
aS'32934'
p3849
a(lp3850
F0.0141938626050535
aF0.071835309375535
aF7.71555684953329e-06
atp3851
a((lp3852
S'35054'
p3853
aS'2914'
p3854
aS'32934'
p3855
a(lp3856
F9.32520956779577e-07
aF0.0397412578082082
aF7.71555684953329e-06
atp3857
a((lp3858
S'6067'
p3859
aS'286'
p3860
aS'4134'
p3861
aS'9318'
p3862
aS'32934'
p3863
a(lp3864
F1.73888515319236e-05
aF0.00493231102784247
aF0.0508122607472338
aF0.00964203178723587
aF7.71555684953329e-06
atp3865
a((lp3866
S'286'
p3867
aS'3549'
p3868
aS'32934'
p3869
a(lp3870
F0.00493231102784247
aF0.071835309375535
aF7.71555684953329e-06
atp3871
a((lp3872
S'20562'
p3873
aS'32934'
p3874
a(lp3875
F2.91509155893349e-05
aF7.71555684953329e-06
atp3876
a((lp3877
S'13237'
p3878
aS'3356'
p3879
aS'32934'
p3880
a(lp3881
F0.00121899513808415
aF0.162200487748635
aF7.71555684953329e-06
atp3882
a((lp3883
S'852'
p3884
aS'32934'
p3885
a(lp3886
F0.00303570169651502
aF7.71555684953329e-06
atp3887
a((lp3888
S'6762'
p3889
aS'3356'
p3890
aS'32934'
p3891
a(lp3892
F0.0141938626050535
aF0.162200487748635
aF7.71555684953329e-06
atp3893
a((lp3894
S'8402'
p3895
aS'3549'
p3896
aS'32934'
p3897
a(lp3898
F0.000524472376680451
aF0.071835309375535
aF7.71555684953329e-06
atp3899
a((lp3900
S'16559'
p3901
aS'32934'
p3902
a(lp3903
F9.57094714634013e-06
aF7.71555684953329e-06
atp3904
a((lp3905
S'42109'
p3906
aS'41965'
p3907
aS'41877'
p3908
aS'3356'
p3909
aS'32934'
p3910
a(lp3911
F5.38189752051041e-06
aF1.52599258663639e-05
aF2.6087087732646e-05
aF0.162200487748635
aF7.71555684953329e-06
atp3912
a((lp3913
S'53070'
p3914
aS'16735'
p3915
aS'3549'
p3916
aS'32934'
p3917
a(lp3918
F4.28624260760561e-06
aF0.000524661708636102
aF0.071835309375535
aF7.71555684953329e-06
atp3919
a((lp3920
S'29636'
p3921
aS'39326'
p3922
aS'32934'
p3923
a(lp3924
F4.49555788954413e-06
aF7.74098141438345e-05
aF7.71555684953329e-06
atp3925
a((lp3926
S'22691'
p3927
aS'8001'
p3928
aS'32934'
p3929
a(lp3930
F1.46813521612981e-05
aF0.000226087275624815
aF7.71555684953329e-06
atp3931
a((lp3932
S'7018'
p3933
aS'4134'
p3934
aS'9318'
p3935
aS'32934'
p3936
a(lp3937
F0.0571471388118949
aF0.0508122607472338
aF0.00964203178723587
aF7.71555684953329e-06
atp3938
a((lp3939
S'3549'
p3940
aS'32934'
p3941
a(lp3942
F0.071835309375535
aF7.71555684953329e-06
atp3943
a((lp3944
S'11537'
p3945
aS'32934'
p3946
a(lp3947
F0.0033552798878698
aF7.71555684953329e-06
atp3948
a((lp3949
S'3267'
p3950
aS'9002'
p3951
aS'32934'
p3952
a(lp3953
F0.000395192632119038
aF0.00164820452408249
aF7.71555684953329e-06
atp3954
a((lp3955
S'39792'
p3956
aS'32934'
p3957
a(lp3958
F0.0001155148133532
aF7.71555684953329e-06
atp3959
a((lp3960
S'29686'
p3961
aS'32934'
p3962
a(lp3963
F2.11474565671264e-05
aF7.71555684953329e-06
atp3964
a((lp3965
S'25091'
p3966
aS'13030'
p3967
aS'32934'
p3968
a(lp3969
F4.62814862993862e-06
aF0.000326775555577134
aF7.71555684953329e-06
atp3970
a((lp3971
S'3303'
p3972
aS'32934'
p3973
a(lp3974
F0.00215906718150794
aF7.71555684953329e-06
atp3975
a((lp3976
S'174'
p3977
aS'4134'
p3978
aS'9318'
p3979
aS'32934'
p3980
a(lp3981
F0.0410146568051113
aF0.0508122607472338
aF0.00964203178723587
aF7.71555684953329e-06
atp3982
a((lp3983
S'29449'
p3984
aS'8928'
p3985
aS'32934'
p3986
a(lp3987
F1.20016902927153e-05
aF0.00381065256523448
aF7.71555684953329e-06
atp3988
a((lp3989
S'12637'
p3990
aS'3549'
p3991
aS'32934'
p3992
a(lp3993
F2.20507971369421e-05
aF0.071835309375535
aF7.71555684953329e-06
atp3994
a((lp3995
S'1299'
p3996
aS'32934'
p3997
a(lp3998
F0.0335721039653728
aF7.71555684953329e-06
atp3999
a((lp4000
S'11686'
p4001
aS'11164'
p4002
aS'32934'
p4003
a(lp4004
F0.000212320888500085
aF0.00837508921813973
aF7.71555684953329e-06
atp4005
a((lp4006
S'293'
p4007
aS'3356'
p4008
aS'32934'
p4009
a(lp4010
F0.00102342904236483
aF0.162200487748635
aF7.71555684953329e-06
atp4011
a((lp4012
S'6079'
p4013
aS'32934'
p4014
a(lp4015
F0.000487898178713442
aF7.71555684953329e-06
atp4016
a((lp4017
S'812'
p4018
aS'32934'
p4019
a(lp4020
F0.00169368157875549
aF7.71555684953329e-06
atp4021
a((lp4022
S'19151'
p4023
aS'32934'
p4024
a(lp4025
F0.00557388733957344
aF7.71555684953329e-06
atp4026
a((lp4027
S'8607'
p4028
aS'32934'
p4029
a(lp4030
F3.33861033731246e-05
aF7.71555684953329e-06
atp4031
a((lp4032
S'293'
p4033
aS'2914'
p4034
aS'32934'
p4035
a(lp4036
F0.00102342904236483
aF0.0397412578082082
aF7.71555684953329e-06
atp4037
a((lp4038
S'39912'
p4039
aS'32934'
p4040
a(lp4041
F0.00013398279920406
aF7.71555684953329e-06
atp4042
a((lp4043
S'6881'
p4044
aS'29208'
p4045
aS'32934'
p4046
a(lp4047
F1.26214963773205e-06
aF0.000231531533557239
aF7.71555684953329e-06
atp4048
a((lp4049
S'4436'
p4050
aS'2914'
p4051
aS'32934'
p4052
a(lp4053
F0.00119511168564979
aF0.0397412578082082
aF7.71555684953329e-06
atp4054
a((lp4055
S'8596'
p4056
aS'174'
p4057
aS'2914'
p4058
aS'32934'
p4059
a(lp4060
F4.08340642426301e-06
aF0.0410146568051113
aF0.0397412578082082
aF7.71555684953329e-06
atp4061
a((lp4062
S'5385'
p4063
aS'6830'
p4064
aS'32934'
p4065
a(lp4066
F3.90780067619987e-05
aF0.00458344639945717
aF7.71555684953329e-06
atp4067
a((lp4068
S'8468'
p4069
aS'32934'
p4070
a(lp4071
F0.000218080931353079
aF7.71555684953329e-06
atp4072
a((lp4073
S'3561'
p4074
aS'3356'
p4075
aS'32934'
p4076
a(lp4077
F0.00825727040984319
aF0.162200487748635
aF7.71555684953329e-06
atp4078
a((lp4079
S'1853'
p4080
aS'3356'
p4081
aS'32934'
p4082
a(lp4083
F0.000653010807579451
aF0.162200487748635
aF7.71555684953329e-06
atp4084
a((lp4085
S'22548'
p4086
aS'3549'
p4087
aS'32934'
p4088
a(lp4089
F2.80418145453395e-06
aF0.071835309375535
aF7.71555684953329e-06
atp4090
a((lp4091
S'286'
p4092
aS'4134'
p4093
aS'9318'
p4094
aS'32934'
p4095
a(lp4096
F0.00493231102784247
aF0.0508122607472338
aF0.00964203178723587
aF7.71555684953329e-06
atp4097
a((lp4098
S'6067'
p4099
aS'3356'
p4100
aS'32934'
p4101
a(lp4102
F1.73888515319236e-05
aF0.162200487748635
aF7.71555684953329e-06
atp4103
a((lp4104
S'8331'
p4105
aS'42861'
p4106
aS'32934'
p4107
a(lp4108
F3.35489780158003e-05
aF4.90949923041244e-05
aF7.71555684953329e-06
atp4109
a((lp4110
S'12989'
p4111
aS'32934'
p4112
a(lp4113
F0.000627149481766012
aF7.71555684953329e-06
atp4114
a((lp4115
S'3356'
p4116
aS'32934'
p4117
a(lp4118
F0.162200487748635
aF7.71555684953329e-06
atp4119
a((lp4120
S'2152'
p4121
aS'32934'
p4122
a(lp4123
F0.00978672653198769
aF7.71555684953329e-06
atp4124
a((lp4125
S'5413'
p4126
aS'32934'
p4127
a(lp4128
F0.000234510967524211
aF7.71555684953329e-06
atp4129
a((lp4130
S'7018'
p4131
aS'3356'
p4132
aS'32934'
p4133
a(lp4134
F0.0571471388118949
aF0.162200487748635
aF7.71555684953329e-06
atp4135
a((lp4136
S'20932'
p4137
aS'3356'
p4138
aS'32934'
p4139
a(lp4140
F4.57189957200178e-06
aF0.162200487748635
aF7.71555684953329e-06
atp4141
a((lp4142
S'34288'
p4143
aS'32934'
p4144
a(lp4145
F9.74090456942071e-06
aF7.71555684953329e-06
atp4146
a((lp4147
S'39202'
p4148
aS'174'
p4149
aS'4134'
p4150
aS'9318'
p4151
aS'32934'
p4152
a(lp4153
F1.71456818878518e-06
aF0.0410146568051113
aF0.0508122607472338
aF0.00964203178723587
aF7.71555684953329e-06
atp4154
a((lp4155
S'8419'
p4156
aS'9318'
p4157
aS'32934'
p4158
a(lp4159
F2.35618151987597e-05
aF0.00964203178723587
aF7.71555684953329e-06
atp4160
a((lp4161
S'38883'
p4162
aS'4826'
p4163
aS'32934'
p4164
a(lp4165
F1.28592614158888e-06
aF0.000863827708565162
aF7.71555684953329e-06
atp4166
a((lp4167
S'31323'
p4168
aS'8359'
p4169
aS'32934'
p4170
a(lp4171
F1.52123782686544e-05
aF0.000985288835474692
aF7.71555684953329e-06
atp4172
a((lp4173
S'13237'
p4174
aS'3257'
p4175
aS'4134'
p4176
aS'9318'
p4177
aS'32934'
p4178
a(lp4179
F0.00121899513808415
aF0.0401925604483201
aF0.0508122607472338
aF0.00964203178723587
aF7.71555684953329e-06
atp4180
a((lp4181
S'11666'
p4182
aS'32934'
p4183
a(lp4184
F5.10330717716341e-05
aF7.71555684953329e-06
atp4185
a((lp4186
S'6939'
p4187
aS'32934'
p4188
a(lp4189
F0.0161529281784453
aF7.71555684953329e-06
atp4190
a((lp4191
S'9189'
p4192
aS'8422'
p4193
aS'32934'
p4194
a(lp4195
F2.476364188086e-05
aF0.000285951775322229
aF7.71555684953329e-06
atp4196
a((lp4197
S'8492'
p4198
aS'32934'
p4199
a(lp4200
F0.000102050483602072
aF7.71555684953329e-06
atp4201
a((lp4202
S'701'
p4203
aS'3356'
p4204
aS'32934'
p4205
a(lp4206
F0.0415470303321891
aF0.162200487748635
aF7.71555684953329e-06
atp4207
a((lp4208
S'35369'
p4209
aS'8218'
p4210
aS'32934'
p4211
a(lp4212
F3.09006562443321e-05
aF0.000580659277351894
aF7.71555684953329e-06
atp4213
a((lp4214
S'9318'
p4215
aS'32934'
p4216
a(lp4217
F0.00964203178723587
aF7.71555684953329e-06
atp4218
a((lp4219
S'2497'
p4220
aS'3356'
p4221
aS'32934'
p4222
a(lp4223
F0.00523726250161144
aF0.162200487748635
aF7.71555684953329e-06
atp4224
a((lp4225
S'4608'
p4226
aS'1221'
p4227
aS'4637'
p4228
aS'32934'
p4229
a(lp4230
F2.67930721631024e-06
aF0.00590486537346703
aF0.00686605481738394
aF7.71555684953329e-06
atp4231
a((lp4232
S'5056'
p4233
aS'209'
p4234
aS'4134'
p4235
aS'9318'
p4236
aS'32934'
p4237
a(lp4238
F0.000219726650002874
aF0.0594041397190728
aF0.0508122607472338
aF0.00964203178723587
aF7.71555684953329e-06
atp4239
a((lp4240
S'3257'
p4241
aS'3549'
p4242
aS'32934'
p4243
a(lp4244
F0.0401925604483201
aF0.071835309375535
aF7.71555684953329e-06
atp4245
a((lp4246
S'6461'
p4247
aS'3549'
p4248
aS'32934'
p4249
a(lp4250
F0.00671376830603192
aF0.071835309375535
aF7.71555684953329e-06
atp4251
a((lp4252
S'12779'
p4253
aS'3549'
p4254
aS'32934'
p4255
a(lp4256
F6.15345256387958e-05
aF0.071835309375535
aF7.71555684953329e-06
atp4257
a((lp4258
S'48285'
p4259
aS'16150'
p4260
aS'32934'
p4261
a(lp4262
F1.44016146252333e-06
aF0.000196375017824541
aF7.71555684953329e-06
atp4263
a((lp4264
S'31500'
p4265
aS'32934'
p4266
a(lp4267
F6.74935633245151e-05
aF7.71555684953329e-06
atp4268
a((lp4269
S'1280'
p4270
aS'32934'
p4271
a(lp4272
F0.00010767345557095
aF7.71555684953329e-06
atp4273
a((lp4274
S'6539'
p4275
aS'32934'
p4276
a(lp4277
F0.000322317810183371
aF7.71555684953329e-06
atp4278
a((lp4279
S'2895'
p4280
aS'3267'
p4281
aS'9002'
p4282
aS'32934'
p4283
a(lp4284
F4.41536888108164e-05
aF0.000395192632119038
aF0.00164820452408249
aF7.71555684953329e-06
atp4285
a((lp4286
S'10026'
p4287
aS'32934'
p4288
a(lp4289
F0.015326288357354
aF7.71555684953329e-06
atp4290
a((lp4291
S'39821'
p4292
aS'9002'
p4293
aS'32934'
p4294
a(lp4295
F8.57284094392588e-07
aF0.00164820452408249
aF7.71555684953329e-06
atp4296
a((lp4297
S'4777'
p4298
aS'2516'
p4299
aS'3549'
p4300
aS'32934'
p4301
a(lp4302
F2.11483464613766e-07
aF0.0142027860324608
aF0.071835309375535
aF7.71555684953329e-06
atp4303
a((lp4304
S'12350'
p4305
aS'32934'
p4306
a(lp4307
F0.000178369172118203
aF7.71555684953329e-06
atp4308
a((lp4309
S'680'
p4310
aS'1299'
p4311
aS'32934'
p4312
a(lp4313
F0.00401922115761135
aF0.0335721039653728
aF7.71555684953329e-06
atp4314
a((lp4315
S'13030'
p4316
aS'32934'
p4317
a(lp4318
F0.000326775555577134
aF7.71555684953329e-06
atp4319
a((lp4320
S'29222'
p4321
aS'3303'
p4322
aS'32934'
p4323
a(lp4324
F5.14370456635553e-06
aF0.00215906718150794
aF7.71555684953329e-06
atp4325
a((lp4326
S'1221'
p4327
aS'4637'
p4328
aS'32934'
p4329
a(lp4330
F0.00590486537346703
aF0.00686605481738394
aF7.71555684953329e-06
atp4331
a((lp4332
S'29636'
p4333
aS'9318'
p4334
aS'32934'
p4335
a(lp4336
F4.49555788954413e-06
aF0.00964203178723587
aF7.71555684953329e-06
atp4337
a((lp4338
S'3257'
p4339
aS'4134'
p4340
aS'9318'
p4341
aS'32934'
p4342
a(lp4343
F0.0401925604483201
aF0.0508122607472338
aF0.00964203178723587
aF7.71555684953329e-06
atp4344
a((lp4345
S'14537'
p4346
aS'3356'
p4347
aS'32934'
p4348
a(lp4349
F7.36699023392109e-06
aF0.162200487748635
aF7.71555684953329e-06
atp4350
a((lp4351
S'30844'
p4352
aS'32934'
p4353
a(lp4354
F1.83008792344855e-05
aF7.71555684953329e-06
atp4355
a((lp4356
S'7500'
p4357
aS'2497'
p4358
aS'3549'
p4359
aS'32934'
p4360
a(lp4361
F3.31421013339519e-07
aF0.00523726250161144
aF0.071835309375535
aF7.71555684953329e-06
atp4362
a((lp4363
S'19089'
p4364
aS'7162'
p4365
aS'3549'
p4366
aS'32934'
p4367
a(lp4368
F1.55410480204534e-05
aF8.6741239197871e-05
aF0.071835309375535
aF7.71555684953329e-06
atp4369
a((lp4370
S'4589'
p4371
aS'32934'
p4372
a(lp4373
F0.00292911121980029
aF7.71555684953329e-06
atp4374
a((lp4375
S'1930'
p4376
aS'20965'
p4377
aS'1299'
p4378
aS'32934'
p4379
a(lp4380
F0.000161404986875987
aF0.00241627136189964
aF0.0335721039653728
aF7.71555684953329e-06
atp4381
a((lp4382
S'44444'
p4383
aS'32934'
p4384
a(lp4385
F1.97768478620422e-06
aF7.71555684953329e-06
atp4386
a((lp4387
S'3561'
p4388
aS'4134'
p4389
aS'9318'
p4390
aS'32934'
p4391
a(lp4392
F0.00825727040984319
aF0.0508122607472338
aF0.00964203178723587
aF7.71555684953329e-06
atp4393
a((lp4394
S'20632'
p4395
aS'9002'
p4396
aS'32934'
p4397
a(lp4398
F0.000119169290620077
aF0.00164820452408249
aF7.71555684953329e-06
atp4399
a((lp4400
S'20121'
p4401
aS'22356'
p4402
aS'32934'
p4403
a(lp4404
I0
aF4.02510338654536e-05
aF7.71555684953329e-06
atp4405
a((lp4406
S'6667'
p4407
aS'32934'
p4408
a(lp4409
F0.00166560298543088
aF7.71555684953329e-06
atp4410
a((lp4411
S'42708'
p4412
aS'32934'
p4413
a(lp4414
F3.6958674615648e-05
aF7.71555684953329e-06
atp4415
a((lp4416
S'51185'
p4417
aS'8220'
p4418
aS'32934'
p4419
a(lp4420
F8.5740002283898e-07
aF0.00162041373838679
aF7.71555684953329e-06
atp4421
a((lp4422
S'1668'
p4423
aS'3356'
p4424
aS'32934'
p4425
a(lp4426
F0.00251404168485292
aF0.162200487748635
aF7.71555684953329e-06
atp4427
a((lp4428
S'6461'
p4429
aS'4134'
p4430
aS'9318'
p4431
aS'32934'
p4432
a(lp4433
F0.00671376830603192
aF0.0508122607472338
aF0.00964203178723587
aF7.71555684953329e-06
atp4434
a((lp4435
S'8928'
p4436
aS'32934'
p4437
a(lp4438
F0.00381065256523448
aF7.71555684953329e-06
atp4439
a((lp4440
S'8001'
p4441
aS'32934'
p4442
a(lp4443
F0.000226087275624815
aF7.71555684953329e-06
atp4444
a((lp4445
S'1299'
p4446
aS'4134'
p4447
aS'9318'
p4448
aS'32934'
p4449
a(lp4450
F0.0335721039653728
aF0.0508122607472338
aF0.00964203178723587
aF7.71555684953329e-06
atp4451
a((lp4452
S'1299'
p4453
aS'3356'
p4454
aS'32934'
p4455
a(lp4456
F0.0335721039653728
aF0.162200487748635
aF7.71555684953329e-06
atp4457
a((lp4458
S'41095'
p4459
aS'32934'
p4460
a(lp4461
F5.24196213152513e-05
aF7.71555684953329e-06
atp4462
a((lp4463
S'7660'
p4464
aS'2516'
p4465
aS'3549'
p4466
aS'32934'
p4467
a(lp4468
F8.82936138526321e-05
aF0.0142027860324608
aF0.071835309375535
aF7.71555684953329e-06
atp4469
a((lp4470
S'8426'
p4471
aS'32934'
p4472
a(lp4473
F0.000400061863221767
aF7.71555684953329e-06
atp4474
a((lp4475
S'2497'
p4476
aS'2914'
p4477
aS'32934'
p4478
a(lp4479
F0.00523726250161144
aF0.0397412578082082
aF7.71555684953329e-06
atp4480
a((lp4481
S'22548'
p4482
aS'10429'
p4483
aS'12956'
p4484
aS'2914'
p4485
aS'32934'
p4486
a(lp4487
F2.80418145453395e-06
aF0.00272613269298881
aF0.014413427482596
aF0.0397412578082082
aF7.71555684953329e-06
atp4488
a((lp4489
S'8419'
p4490
aS'6461'
p4491
aS'4134'
p4492
aS'9318'
p4493
aS'32934'
p4494
a(lp4495
F2.35618151987597e-05
aF0.00671376830603192
aF0.0508122607472338
aF0.00964203178723587
aF7.71555684953329e-06
atp4496
a((lp4497
S'8447'
p4498
aS'32934'
p4499
a(lp4500
F0.00147299389342183
aF7.71555684953329e-06
atp4501
a((lp4502
S'9002'
p4503
aS'32934'
p4504
a(lp4505
F0.00164820452408249
aF7.71555684953329e-06
atp4506
a((lp4507
S'5056'
p4508
aS'3356'
p4509
aS'32934'
p4510
a(lp4511
F0.000219726650002874
aF0.162200487748635
aF7.71555684953329e-06
atp4512
a((lp4513
S'3130'
p4514
aS'1239'
p4515
aS'3356'
p4516
aS'32934'
p4517
a(lp4518
F4.83306157935933e-05
aF0.0445347482285944
aF0.162200487748635
aF7.71555684953329e-06
atp4519
a((lp4520
S'41495'
p4521
aS'39757'
p4522
aS'32934'
p4523
a(lp4524
F1.39308665338795e-06
aF1.47152948942073e-05
aF7.71555684953329e-06
atp4525
a((lp4526
S'28289'
p4527
aS'53131'
p4528
aS'16735'
p4529
aS'3549'
p4530
aS'32934'
p4531
a(lp4532
F2.57185228317776e-06
aF9.43012503831846e-06
aF0.000524661708636102
aF0.071835309375535
aF7.71555684953329e-06
atp4533
a((lp4534
S'12859'
p4535
aS'32934'
p4536
a(lp4537
F2.52663003011881e-05
aF7.71555684953329e-06
atp4538
a((lp4539
S'4739'
p4540
aS'32934'
p4541
a(lp4542
F0.00036955642320434
aF7.71555684953329e-06
atp4543
a((lp4544
S'6453'
p4545
aS'3356'
p4546
aS'32934'
p4547
a(lp4548
F0.0313131228741157
aF0.162200487748635
aF7.71555684953329e-06
atp4549
a((lp4550
S'1103'
p4551
aS'32934'
p4552
a(lp4553
F0.00470817249153851
aF7.71555684953329e-06
atp4554
a((lp4555
S'8596'
p4556
aS'32934'
p4557
a(lp4558
F4.08340642426301e-06
aF7.71555684953329e-06
atp4559
a((lp4560
S'3561'
p4561
aS'3549'
p4562
aS'32934'
p4563
a(lp4564
F0.00825727040984319
aF0.071835309375535
aF7.71555684953329e-06
atp4565
a((lp4566
S'6762'
p4567
aS'4134'
p4568
aS'9318'
p4569
aS'32934'
p4570
a(lp4571
F0.0141938626050535
aF0.0508122607472338
aF0.00964203178723587
aF7.71555684953329e-06
atp4572
a((lp4573
S'513'
p4574
aS'6730'
p4575
aS'32934'
p4576
a(lp4577
F0.000162509396125217
aF0.000702122054185039
aF7.71555684953329e-06
atp4578
a((lp4579
S'28917'
p4580
aS'32934'
p4581
a(lp4582
F0.000183745938902465
aF7.71555684953329e-06
atp4583
a((lp4584
S'38809'
p4585
aS'703'
p4586
aS'701'
p4587
aS'2914'
p4588
aS'32934'
p4589
a(lp4590
F0.000133152465967229
aF0.00103896902728138
aF0.0415470303321891
aF0.0397412578082082
aF7.71555684953329e-06
atp4591
a((lp4592
S'39202'
p4593
aS'174'
p4594
aS'2914'
p4595
aS'32934'
p4596
a(lp4597
F1.71456818878518e-06
aF0.0410146568051113
aF0.0397412578082082
aF7.71555684953329e-06
atp4598
a((lp4599
S'14361'
p4600
aS'32934'
p4601
a(lp4602
F5.84119196678973e-05
aF7.71555684953329e-06
atp4603
a((lp4604
S'7575'
p4605
aS'32934'
p4606
a(lp4607
F0.0016851390926839
aF7.71555684953329e-06
atp4608
a((lp4609
S'4826'
p4610
aS'32934'
p4611
a(lp4612
F0.000863827708565162
aF7.71555684953329e-06
atp4613
a((lp4614
S'34695'
p4615
aS'32934'
p4616
a(lp4617
F7.06118338980452e-05
aF7.71555684953329e-06
atp4618
a((lp4619
S'2497'
p4620
aS'3549'
p4621
aS'32934'
p4622
a(lp4623
F0.00523726250161144
aF0.071835309375535
aF7.71555684953329e-06
atp4624
a((lp4625
S'8359'
p4626
aS'32934'
p4627
a(lp4628
F0.000985288835474692
aF7.71555684953329e-06
atp4629
a((lp4630
S'2914'
p4631
aS'32934'
p4632
a(lp4633
F0.0397412578082082
aF7.71555684953329e-06
atp4634
assS'prefix'
p4635
S'69.171.255.0/24'
p4636
sS'local_paths'
p4637
(dp4638
g57
(dp4639
S'32934'
p4640
(lp4641
((lp4642
S'8758'
p4643
aS'13030'
p4644
aS'32934'
p4645
a(lp4646
I0
aI0
aF1.0
atp4647
a((lp4648
S'9304'
p4649
aS'32934'
p4650
a(lp4651
I0
aF1.0
atp4652
a((lp4653
S'16735'
p4654
aS'3549'
p4655
aS'32934'
p4656
a(lp4657
I0
aF0.0963753387533875
aF1.0
atp4658
a((lp4659
S'8928'
p4660
aS'32934'
p4661
a(lp4662
I0
aF1.0
atp4663
a((lp4664
S'12779'
p4665
aS'3549'
p4666
aS'32934'
p4667
a(lp4668
I0
aF0.0963753387533875
aF1.0
atp4669
a((lp4670
S'25152'
p4671
aS'23148'
p4672
aS'32934'
p4673
a(lp4674
I0
aI0
aF1.0
atp4675
a((lp4676
S'3549'
p4677
aS'32934'
p4678
a(lp4679
F0.0963753387533875
aF1.0
atp4680
a((lp4681
S'6461'
p4682
aS'3549'
p4683
aS'32934'
p4684
a(lp4685
I0
aF0.0963753387533875
aF1.0
atp4686
a((lp4687
S'20562'
p4688
aS'32934'
p4689
a(lp4690
I0
aF1.0
atp4691
a((lp4692
S'42109'
p4693
aS'41965'
p4694
aS'41877'
p4695
aS'3356'
p4696
aS'32934'
p4697
a(lp4698
I0
aI0
aI0
aF0.198509485094851
aF1.0
atp4699
a((lp4700
S'852'
p4701
aS'32934'
p4702
a(lp4703
I0
aF1.0
atp4704
a((lp4705
S'35369'
p4706
aS'8218'
p4707
aS'32934'
p4708
a(lp4709
I0
aI0
aF1.0
atp4710
a((lp4711
S'16559'
p4712
aS'32934'
p4713
a(lp4714
I0
aF1.0
atp4715
a((lp4716
S'4608'
p4717
aS'1221'
p4718
aS'4637'
p4719
aS'32934'
p4720
a(lp4721
I0
aI0
aI0
aF1.0
atp4722
a((lp4723
S'20932'
p4724
aS'3356'
p4725
aS'32934'
p4726
a(lp4727
I0
aF0.198509485094851
aF1.0
atp4728
a((lp4729
S'14537'
p4730
aS'3356'
p4731
aS'32934'
p4732
a(lp4733
I0
aF0.198509485094851
aF1.0
atp4734
a((lp4735
S'1299'
p4736
aS'3356'
p4737
aS'32934'
p4738
a(lp4739
I0
aF0.198509485094851
aF1.0
atp4740
a((lp4741
S'3130'
p4742
aS'1239'
p4743
aS'3356'
p4744
aS'32934'
p4745
a(lp4746
I0
aI0
aF0.198509485094851
aF1.0
atp4747
a((lp4748
S'8426'
p4749
aS'3549'
p4750
aS'32934'
p4751
a(lp4752
I0
aF0.0963753387533875
aF1.0
atp4753
a((lp4754
S'8447'
p4755
aS'32934'
p4756
a(lp4757
I0
aF1.0
atp4758
a((lp4759
S'11537'
p4760
aS'32934'
p4761
a(lp4762
I0
aF1.0
atp4763
a((lp4764
S'3267'
p4765
aS'9002'
p4766
aS'32934'
p4767
a(lp4768
I0
aI0
aF1.0
atp4769
a((lp4770
S'39792'
p4771
aS'32934'
p4772
a(lp4773
I0
aF1.0
atp4774
a((lp4775
S'19089'
p4776
aS'7162'
p4777
aS'3549'
p4778
aS'32934'
p4779
a(lp4780
I0
aI0
aF0.0963753387533875
aF1.0
atp4781
a((lp4782
S'29686'
p4783
aS'32934'
p4784
a(lp4785
I0
aF1.0
atp4786
a((lp4787
S'1239'
p4788
aS'3356'
p4789
aS'32934'
p4790
a(lp4791
I0
aF0.198509485094851
aF1.0
atp4792
a((lp4793
S'3303'
p4794
aS'32934'
p4795
a(lp4796
I0
aF1.0
atp4797
a((lp4798
S'31323'
p4799
aS'1299'
p4800
aS'32934'
p4801
a(lp4802
I0
aI0
aF1.0
atp4803
a((lp4804
S'29449'
p4805
aS'8928'
p4806
aS'32934'
p4807
a(lp4808
I0
aI0
aF1.0
atp4809
a((lp4810
S'4777'
p4811
aS'2516'
p4812
aS'3549'
p4813
aS'32934'
p4814
a(lp4815
I0
aI0
aF0.0963753387533875
aF1.0
atp4816
a((lp4817
S'1853'
p4818
aS'3356'
p4819
aS'32934'
p4820
a(lp4821
I0
aF0.198509485094851
aF1.0
atp4822
a((lp4823
S'1299'
p4824
aS'32934'
p4825
a(lp4826
I0
aF1.0
atp4827
a((lp4828
S'11686'
p4829
aS'11164'
p4830
aS'32934'
p4831
a(lp4832
I0
aI0
aF1.0
atp4833
a((lp4834
S'6079'
p4835
aS'32934'
p4836
a(lp4837
I0
aF1.0
atp4838
a((lp4839
S'812'
p4840
aS'32934'
p4841
a(lp4842
I0
aF1.0
atp4843
a((lp4844
S'19151'
p4845
aS'32934'
p4846
a(lp4847
I0
aF1.0
atp4848
a((lp4849
S'286'
p4850
aS'3549'
p4851
aS'32934'
p4852
a(lp4853
I0
aF0.0963753387533875
aF1.0
atp4854
a((lp4855
S'39912'
p4856
aS'32934'
p4857
a(lp4858
I0
aF1.0
atp4859
a((lp4860
S'8607'
p4861
aS'32934'
p4862
a(lp4863
I0
aF1.0
atp4864
a((lp4865
S'6881'
p4866
aS'29208'
p4867
aS'32934'
p4868
a(lp4869
I0
aI0
aF1.0
atp4870
a((lp4871
S'5056'
p4872
aS'3356'
p4873
aS'32934'
p4874
a(lp4875
I0
aF0.198509485094851
aF1.0
atp4876
a((lp4877
S'5385'
p4878
aS'6830'
p4879
aS'32934'
p4880
a(lp4881
I0
aI0
aF1.0
atp4882
a((lp4883
S'8468'
p4884
aS'32934'
p4885
a(lp4886
I0
aF1.0
atp4887
a((lp4888
S'3356'
p4889
aS'32934'
p4890
a(lp4891
F0.198509485094851
aF1.0
atp4892
a((lp4893
S'1668'
p4894
aS'3356'
p4895
aS'32934'
p4896
a(lp4897
I0
aF0.198509485094851
aF1.0
atp4898
a((lp4899
S'8402'
p4900
aS'3549'
p4901
aS'32934'
p4902
a(lp4903
I0
aF0.0963753387533875
aF1.0
atp4904
a((lp4905
S'8331'
p4906
aS'42861'
p4907
aS'32934'
p4908
a(lp4909
I0
aI0
aF1.0
atp4910
a((lp4911
S'12989'
p4912
aS'32934'
p4913
a(lp4914
I0
aF1.0
atp4915
a((lp4916
S'2152'
p4917
aS'32934'
p4918
a(lp4919
I0
aF1.0
atp4920
a((lp4921
S'5413'
p4922
aS'32934'
p4923
a(lp4924
I0
aF1.0
atp4925
a((lp4926
S'7018'
p4927
aS'3356'
p4928
aS'32934'
p4929
a(lp4930
I0
aF0.198509485094851
aF1.0
atp4931
a((lp4932
S'34288'
p4933
aS'32934'
p4934
a(lp4935
I0
aF1.0
atp4936
a((lp4937
S'3333'
p4938
aS'8218'
p4939
aS'32934'
p4940
a(lp4941
I0
aI0
aF1.0
atp4942
a((lp4943
S'8419'
p4944
aS'9318'
p4945
aS'32934'
p4946
a(lp4947
I0
aI0
aF1.0
atp4948
a((lp4949
S'38883'
p4950
aS'4826'
p4951
aS'32934'
p4952
a(lp4953
I0
aI0
aF1.0
atp4954
a((lp4955
S'12637'
p4956
aS'3549'
p4957
aS'32934'
p4958
a(lp4959
I0
aF0.0963753387533875
aF1.0
atp4960
a((lp4961
S'11666'
p4962
aS'32934'
p4963
a(lp4964
I0
aF1.0
atp4965
a((lp4966
S'6939'
p4967
aS'32934'
p4968
a(lp4969
I0
aF1.0
atp4970
a((lp4971
S'9189'
p4972
aS'8422'
p4973
aS'32934'
p4974
a(lp4975
I0
aI0
aF1.0
atp4976
a((lp4977
S'8492'
p4978
aS'32934'
p4979
a(lp4980
I0
aF1.0
atp4981
a((lp4982
S'39202'
p4983
aS'174'
p4984
aS'2914'
p4985
aS'32934'
p4986
a(lp4987
I0
aI0
aF0.00592818428184282
aF1.0
atp4988
a((lp4989
S'22548'
p4990
aS'10429'
p4991
aS'12956'
p4992
aS'2914'
p4993
aS'32934'
p4994
a(lp4995
I0
aI0
aI0
aF0.00592818428184282
aF1.0
atp4996
a((lp4997
S'8419'
p4998
aS'3356'
p4999
aS'32934'
p5000
a(lp5001
I0
aF0.198509485094851
aF1.0
atp5002
a((lp5003
S'2497'
p5004
aS'3356'
p5005
aS'32934'
p5006
a(lp5007
I0
aF0.198509485094851
aF1.0
atp5008
a((lp5009
S'7500'
p5010
aS'2497'
p5011
aS'2914'
p5012
aS'32934'
p5013
a(lp5014
I0
aI0
aF0.00592818428184282
aF1.0
atp5015
a((lp5016
S'35054'
p5017
aS'2914'
p5018
aS'32934'
p5019
a(lp5020
I0
aF0.00592818428184282
aF1.0
atp5021
a((lp5022
S'28220'
p5023
aS'4230'
p5024
aS'2914'
p5025
aS'32934'
p5026
a(lp5027
I0
aI0
aF0.00592818428184282
aF1.0
atp5028
a((lp5029
S'174'
p5030
aS'3549'
p5031
aS'32934'
p5032
a(lp5033
I0
aF0.0963753387533875
aF1.0
atp5034
a((lp5035
S'2914'
p5036
aS'32934'
p5037
a(lp5038
F0.00592818428184282
aF1.0
atp5039
a((lp5040
S'48285'
p5041
aS'16150'
p5042
aS'32934'
p5043
a(lp5044
I0
aI0
aF1.0
atp5045
a((lp5046
S'31500'
p5047
aS'32934'
p5048
a(lp5049
I0
aF1.0
atp5050
a((lp5051
S'8596'
p5052
aS'174'
p5053
aS'2914'
p5054
aS'32934'
p5055
a(lp5056
I0
aI0
aF0.00592818428184282
aF1.0
atp5057
a((lp5058
S'1280'
p5059
aS'32934'
p5060
a(lp5061
I0
aF1.0
atp5062
a((lp5063
S'6539'
p5064
aS'32934'
p5065
a(lp5066
I0
aF1.0
atp5067
a((lp5068
S'3561'
p5069
aS'3549'
p5070
aS'32934'
p5071
a(lp5072
I0
aF0.0963753387533875
aF1.0
atp5073
a((lp5074
S'2895'
p5075
aS'3267'
p5076
aS'9002'
p5077
aS'32934'
p5078
a(lp5079
I0
aI0
aI0
aF1.0
atp5080
a((lp5081
S'10026'
p5082
aS'32934'
p5083
a(lp5084
I0
aF1.0
atp5085
a((lp5086
S'39821'
p5087
aS'9002'
p5088
aS'32934'
p5089
a(lp5090
I0
aI0
aF1.0
atp5091
a((lp5092
S'12350'
p5093
aS'32934'
p5094
a(lp5095
I0
aF1.0
atp5096
a((lp5097
S'6453'
p5098
aS'3356'
p5099
aS'32934'
p5100
a(lp5101
F0.00152439024390244
aF0.198509485094851
aF1.0
atp5102
a((lp5103
S'53070'
p5104
aS'16735'
p5105
aS'3549'
p5106
aS'32934'
p5107
a(lp5108
I0
aI0
aF0.0963753387533875
aF1.0
atp5109
a((lp5110
S'680'
p5111
aS'1299'
p5112
aS'32934'
p5113
a(lp5114
I0
aI0
aF1.0
atp5115
a((lp5116
S'13030'
p5117
aS'32934'
p5118
a(lp5119
I0
aF1.0
atp5120
a((lp5121
S'701'
p5122
aS'3356'
p5123
aS'32934'
p5124
a(lp5125
I0
aF0.198509485094851
aF1.0
atp5126
a((lp5127
S'6067'
p5128
aS'3356'
p5129
aS'32934'
p5130
a(lp5131
I0
aF0.198509485094851
aF1.0
atp5132
a((lp5133
S'29222'
p5134
aS'3303'
p5135
aS'32934'
p5136
a(lp5137
I0
aI0
aF1.0
atp5138
a((lp5139
S'1221'
p5140
aS'4637'
p5141
aS'32934'
p5142
a(lp5143
I0
aI0
aF1.0
atp5144
a((lp5145
S'29636'
p5146
aS'9318'
p5147
aS'32934'
p5148
a(lp5149
I0
aI0
aF1.0
atp5150
a((lp5151
S'30844'
p5152
aS'32934'
p5153
a(lp5154
I0
aF1.0
atp5155
a((lp5156
S'3257'
p5157
aS'3549'
p5158
aS'32934'
p5159
a(lp5160
I0
aF0.0963753387533875
aF1.0
atp5161
a((lp5162
S'25091'
p5163
aS'13030'
p5164
aS'32934'
p5165
a(lp5166
I0
aI0
aF1.0
atp5167
a((lp5168
S'293'
p5169
aS'2914'
p5170
aS'32934'
p5171
a(lp5172
I0
aF0.00592818428184282
aF1.0
atp5173
a((lp5174
S'4589'
p5175
aS'32934'
p5176
a(lp5177
I0
aF1.0
atp5178
a((lp5179
S'1930'
p5180
aS'20965'
p5181
aS'1299'
p5182
aS'32934'
p5183
a(lp5184
I0
aI0
aI0
aF1.0
atp5185
a((lp5186
S'6762'
p5187
aS'2914'
p5188
aS'32934'
p5189
a(lp5190
I0
aF0.00592818428184282
aF1.0
atp5191
a((lp5192
S'6762'
p5193
aS'3549'
p5194
aS'32934'
p5195
a(lp5196
I0
aF0.0963753387533875
aF1.0
atp5197
a((lp5198
S'44444'
p5199
aS'32934'
p5200
a(lp5201
I0
aF1.0
atp5202
a((lp5203
S'293'
p5204
aS'3356'
p5205
aS'32934'
p5206
a(lp5207
I0
aF0.198509485094851
aF1.0
atp5208
a((lp5209
S'28138'
p5210
aS'16735'
p5211
aS'3549'
p5212
aS'32934'
p5213
a(lp5214
I0
aI0
aF0.0963753387533875
aF1.0
atp5215
a((lp5216
S'38809'
p5217
aS'703'
p5218
aS'701'
p5219
aS'2914'
p5220
aS'32934'
p5221
a(lp5222
I0
aI0
aI0
aF0.00592818428184282
aF1.0
atp5223
a((lp5224
S'28220'
p5225
aS'12956'
p5226
aS'2914'
p5227
aS'32934'
p5228
a(lp5229
I0
aI0
aF0.00592818428184282
aF1.0
atp5230
a((lp5231
S'4436'
p5232
aS'2914'
p5233
aS'32934'
p5234
a(lp5235
I0
aF0.00592818428184282
aF1.0
atp5236
a((lp5237
S'20632'
p5238
aS'9002'
p5239
aS'32934'
p5240
a(lp5241
I0
aI0
aF1.0
atp5242
a((lp5243
S'20121'
p5244
aS'22356'
p5245
aS'32934'
p5246
a(lp5247
I0
aI0
aF1.0
atp5248
a((lp5249
S'28289'
p5250
aS'53131'
p5251
aS'16735'
p5252
aS'3549'
p5253
aS'32934'
p5254
a(lp5255
I0
aI0
aI0
aF0.0963753387533875
aF1.0
atp5256
a((lp5257
S'6667'
p5258
aS'32934'
p5259
a(lp5260
I0
aF1.0
atp5261
a((lp5262
S'13237'
p5263
aS'3356'
p5264
aS'32934'
p5265
a(lp5266
I0
aF0.198509485094851
aF1.0
atp5267
a((lp5268
S'51185'
p5269
aS'8220'
p5270
aS'32934'
p5271
a(lp5272
I0
aI0
aF1.0
atp5273
a((lp5274
S'29636'
p5275
aS'39326'
p5276
aS'32934'
p5277
a(lp5278
I0
aI0
aF1.0
atp5279
a((lp5280
S'42708'
p5281
aS'32934'
p5282
a(lp5283
I0
aF1.0
atp5284
a((lp5285
S'22691'
p5286
aS'8001'
p5287
aS'32934'
p5288
a(lp5289
I0
aI0
aF1.0
atp5290
a((lp5291
S'8001'
p5292
aS'32934'
p5293
a(lp5294
I0
aF1.0
atp5295
a((lp5296
S'3561'
p5297
aS'3356'
p5298
aS'32934'
p5299
a(lp5300
I0
aF0.198509485094851
aF1.0
atp5301
a((lp5302
S'41095'
p5303
aS'32934'
p5304
a(lp5305
I0
aF1.0
atp5306
a((lp5307
S'14361'
p5308
aS'32934'
p5309
a(lp5310
I0
aF1.0
atp5311
a((lp5312
S'8426'
p5313
aS'32934'
p5314
a(lp5315
I0
aF1.0
atp5316
a((lp5317
S'9002'
p5318
aS'32934'
p5319
a(lp5320
I0
aF1.0
atp5321
a((lp5322
S'6762'
p5323
aS'3356'
p5324
aS'32934'
p5325
a(lp5326
I0
aF0.198509485094851
aF1.0
atp5327
a((lp5328
S'41495'
p5329
aS'39757'
p5330
aS'32934'
p5331
a(lp5332
I0
aI0
aF1.0
atp5333
a((lp5334
S'12859'
p5335
aS'32934'
p5336
a(lp5337
I0
aF1.0
atp5338
a((lp5339
S'4739'
p5340
aS'32934'
p5341
a(lp5342
I0
aF1.0
atp5343
a((lp5344
S'2497'
p5345
aS'2914'
p5346
aS'32934'
p5347
a(lp5348
I0
aF0.00592818428184282
aF1.0
atp5349
a((lp5350
S'7660'
p5351
aS'2516'
p5352
aS'3549'
p5353
aS'32934'
p5354
a(lp5355
I0
aI0
aF0.0963753387533875
aF1.0
atp5356
a((lp5357
S'9318'
p5358
aS'32934'
p5359
a(lp5360
I0
aF1.0
atp5361
a((lp5362
S'1103'
p5363
aS'32934'
p5364
a(lp5365
I0
aF1.0
atp5366
a((lp5367
S'8596'
p5368
aS'32934'
p5369
a(lp5370
I0
aF1.0
atp5371
a((lp5372
S'513'
p5373
aS'6730'
p5374
aS'32934'
p5375
a(lp5376
I0
aI0
aF1.0
atp5377
a((lp5378
S'28917'
p5379
aS'32934'
p5380
a(lp5381
I0
aF1.0
atp5382
a((lp5383
S'7575'
p5384
aS'32934'
p5385
a(lp5386
I0
aF1.0
atp5387
a((lp5388
S'4826'
p5389
aS'32934'
p5390
a(lp5391
I0
aF1.0
atp5392
a((lp5393
S'34695'
p5394
aS'32934'
p5395
a(lp5396
I0
aF1.0
atp5397
a((lp5398
S'5056'
p5399
aS'209'
p5400
aS'3356'
p5401
aS'32934'
p5402
a(lp5403
I0
aI0
aF0.198509485094851
aF1.0
atp5404
a((lp5405
S'8359'
p5406
aS'32934'
p5407
a(lp5408
I0
aF1.0
atp5409
assg62
(dp5410
S'32934'
p5411
(lp5412
((lp5413
S'8758'
p5414
aS'13030'
p5415
aS'32934'
p5416
a(lp5417
I0
aI0
aF1.0
atp5418
a((lp5419
S'9304'
p5420
aS'32934'
p5421
a(lp5422
I0
aF1.0
atp5423
a((lp5424
S'28138'
p5425
aS'16735'
p5426
aS'3549'
p5427
aS'32934'
p5428
a(lp5429
I0
aI0
aF0.0963753387533875
aF1.0
atp5430
a((lp5431
S'3333'
p5432
aS'8218'
p5433
aS'32934'
p5434
a(lp5435
I0
aI0
aF1.0
atp5436
a((lp5437
S'8419'
p5438
aS'3356'
p5439
aS'32934'
p5440
a(lp5441
I0
aF0.198509485094851
aF1.0
atp5442
a((lp5443
S'1239'
p5444
aS'3356'
p5445
aS'32934'
p5446
a(lp5447
I0
aF0.198509485094851
aF1.0
atp5448
a((lp5449
S'25152'
p5450
aS'23148'
p5451
aS'32934'
p5452
a(lp5453
I0
aI0
aF1.0
atp5454
a((lp5455
S'16735'
p5456
aS'3549'
p5457
aS'32934'
p5458
a(lp5459
I0
aF0.0963753387533875
aF1.0
atp5460
a((lp5461
S'174'
p5462
aS'3549'
p5463
aS'32934'
p5464
a(lp5465
I0
aF0.0963753387533875
aF1.0
atp5466
a((lp5467
S'6762'
p5468
aS'3549'
p5469
aS'32934'
p5470
a(lp5471
I0
aF0.0963753387533875
aF1.0
atp5472
a((lp5473
S'35054'
p5474
aS'2914'
p5475
aS'32934'
p5476
a(lp5477
I0
aF0.00592818428184282
aF1.0
atp5478
a((lp5479
S'6067'
p5480
aS'286'
p5481
aS'4134'
p5482
aS'9318'
p5483
aS'32934'
p5484
a(lp5485
I0
aI0
aI0
aI0
aF1.0
atp5486
a((lp5487
S'286'
p5488
aS'3549'
p5489
aS'32934'
p5490
a(lp5491
I0
aF0.0963753387533875
aF1.0
atp5492
a((lp5493
S'20562'
p5494
aS'32934'
p5495
a(lp5496
I0
aF1.0
atp5497
a((lp5498
S'13237'
p5499
aS'3356'
p5500
aS'32934'
p5501
a(lp5502
I0
aF0.198509485094851
aF1.0
atp5503
a((lp5504
S'852'
p5505
aS'32934'
p5506
a(lp5507
I0
aF1.0
atp5508
a((lp5509
S'6762'
p5510
aS'3356'
p5511
aS'32934'
p5512
a(lp5513
I0
aF0.198509485094851
aF1.0
atp5514
a((lp5515
S'8402'
p5516
aS'3549'
p5517
aS'32934'
p5518
a(lp5519
I0
aF0.0963753387533875
aF1.0
atp5520
a((lp5521
S'16559'
p5522
aS'32934'
p5523
a(lp5524
I0
aF1.0
atp5525
a((lp5526
S'42109'
p5527
aS'41965'
p5528
aS'41877'
p5529
aS'3356'
p5530
aS'32934'
p5531
a(lp5532
I0
aI0
aI0
aF0.198509485094851
aF1.0
atp5533
a((lp5534
S'53070'
p5535
aS'16735'
p5536
aS'3549'
p5537
aS'32934'
p5538
a(lp5539
I0
aI0
aF0.0963753387533875
aF1.0
atp5540
a((lp5541
S'29636'
p5542
aS'39326'
p5543
aS'32934'
p5544
a(lp5545
I0
aI0
aF1.0
atp5546
a((lp5547
S'22691'
p5548
aS'8001'
p5549
aS'32934'
p5550
a(lp5551
I0
aI0
aF1.0
atp5552
a((lp5553
S'7018'
p5554
aS'4134'
p5555
aS'9318'
p5556
aS'32934'
p5557
a(lp5558
I0
aI0
aI0
aF1.0
atp5559
a((lp5560
S'3549'
p5561
aS'32934'
p5562
a(lp5563
F0.0963753387533875
aF1.0
atp5564
a((lp5565
S'11537'
p5566
aS'32934'
p5567
a(lp5568
I0
aF1.0
atp5569
a((lp5570
S'3267'
p5571
aS'9002'
p5572
aS'32934'
p5573
a(lp5574
I0
aI0
aF1.0
atp5575
a((lp5576
S'39792'
p5577
aS'32934'
p5578
a(lp5579
I0
aF1.0
atp5580
a((lp5581
S'29686'
p5582
aS'32934'
p5583
a(lp5584
I0
aF1.0
atp5585
a((lp5586
S'25091'
p5587
aS'13030'
p5588
aS'32934'
p5589
a(lp5590
I0
aI0
aF1.0
atp5591
a((lp5592
S'3303'
p5593
aS'32934'
p5594
a(lp5595
I0
aF1.0
atp5596
a((lp5597
S'174'
p5598
aS'4134'
p5599
aS'9318'
p5600
aS'32934'
p5601
a(lp5602
I0
aI0
aI0
aF1.0
atp5603
a((lp5604
S'29449'
p5605
aS'8928'
p5606
aS'32934'
p5607
a(lp5608
I0
aI0
aF1.0
atp5609
a((lp5610
S'12637'
p5611
aS'3549'
p5612
aS'32934'
p5613
a(lp5614
I0
aF0.0963753387533875
aF1.0
atp5615
a((lp5616
S'1299'
p5617
aS'32934'
p5618
a(lp5619
I0
aF1.0
atp5620
a((lp5621
S'11686'
p5622
aS'11164'
p5623
aS'32934'
p5624
a(lp5625
I0
aI0
aF1.0
atp5626
a((lp5627
S'293'
p5628
aS'3356'
p5629
aS'32934'
p5630
a(lp5631
I0
aF0.198509485094851
aF1.0
atp5632
a((lp5633
S'6079'
p5634
aS'32934'
p5635
a(lp5636
I0
aF1.0
atp5637
a((lp5638
S'812'
p5639
aS'32934'
p5640
a(lp5641
I0
aF1.0
atp5642
a((lp5643
S'19151'
p5644
aS'32934'
p5645
a(lp5646
I0
aF1.0
atp5647
a((lp5648
S'8607'
p5649
aS'32934'
p5650
a(lp5651
I0
aF1.0
atp5652
a((lp5653
S'293'
p5654
aS'2914'
p5655
aS'32934'
p5656
a(lp5657
I0
aF0.00592818428184282
aF1.0
atp5658
a((lp5659
S'39912'
p5660
aS'32934'
p5661
a(lp5662
I0
aF1.0
atp5663
a((lp5664
S'6881'
p5665
aS'29208'
p5666
aS'32934'
p5667
a(lp5668
I0
aI0
aF1.0
atp5669
a((lp5670
S'4436'
p5671
aS'2914'
p5672
aS'32934'
p5673
a(lp5674
I0
aF0.00592818428184282
aF1.0
atp5675
a((lp5676
S'8596'
p5677
aS'174'
p5678
aS'2914'
p5679
aS'32934'
p5680
a(lp5681
I0
aI0
aF0.00592818428184282
aF1.0
atp5682
a((lp5683
S'5385'
p5684
aS'6830'
p5685
aS'32934'
p5686
a(lp5687
I0
aI0
aF1.0
atp5688
a((lp5689
S'8468'
p5690
aS'32934'
p5691
a(lp5692
I0
aF1.0
atp5693
a((lp5694
S'3561'
p5695
aS'3356'
p5696
aS'32934'
p5697
a(lp5698
I0
aF0.198509485094851
aF1.0
atp5699
a((lp5700
S'1853'
p5701
aS'3356'
p5702
aS'32934'
p5703
a(lp5704
I0
aF0.198509485094851
aF1.0
atp5705
a((lp5706
S'22548'
p5707
aS'3549'
p5708
aS'32934'
p5709
a(lp5710
I0
aF0.0963753387533875
aF1.0
atp5711
a((lp5712
S'286'
p5713
aS'4134'
p5714
aS'9318'
p5715
aS'32934'
p5716
a(lp5717
I0
aI0
aI0
aF1.0
atp5718
a((lp5719
S'6067'
p5720
aS'3356'
p5721
aS'32934'
p5722
a(lp5723
I0
aF0.198509485094851
aF1.0
atp5724
a((lp5725
S'8331'
p5726
aS'42861'
p5727
aS'32934'
p5728
a(lp5729
I0
aI0
aF1.0
atp5730
a((lp5731
S'12989'
p5732
aS'32934'
p5733
a(lp5734
I0
aF1.0
atp5735
a((lp5736
S'3356'
p5737
aS'32934'
p5738
a(lp5739
F0.198509485094851
aF1.0
atp5740
a((lp5741
S'2152'
p5742
aS'32934'
p5743
a(lp5744
I0
aF1.0
atp5745
a((lp5746
S'5413'
p5747
aS'32934'
p5748
a(lp5749
I0
aF1.0
atp5750
a((lp5751
S'7018'
p5752
aS'3356'
p5753
aS'32934'
p5754
a(lp5755
I0
aF0.198509485094851
aF1.0
atp5756
a((lp5757
S'20932'
p5758
aS'3356'
p5759
aS'32934'
p5760
a(lp5761
I0
aF0.198509485094851
aF1.0
atp5762
a((lp5763
S'34288'
p5764
aS'32934'
p5765
a(lp5766
I0
aF1.0
atp5767
a((lp5768
S'39202'
p5769
aS'174'
p5770
aS'4134'
p5771
aS'9318'
p5772
aS'32934'
p5773
a(lp5774
I0
aI0
aI0
aI0
aF1.0
atp5775
a((lp5776
S'8419'
p5777
aS'9318'
p5778
aS'32934'
p5779
a(lp5780
I0
aI0
aF1.0
atp5781
a((lp5782
S'38883'
p5783
aS'4826'
p5784
aS'32934'
p5785
a(lp5786
I0
aI0
aF1.0
atp5787
a((lp5788
S'31323'
p5789
aS'8359'
p5790
aS'32934'
p5791
a(lp5792
I0
aI0
aF1.0
atp5793
a((lp5794
S'13237'
p5795
aS'3257'
p5796
aS'4134'
p5797
aS'9318'
p5798
aS'32934'
p5799
a(lp5800
I0
aI0
aI0
aI0
aF1.0
atp5801
a((lp5802
S'11666'
p5803
aS'32934'
p5804
a(lp5805
I0
aF1.0
atp5806
a((lp5807
S'6939'
p5808
aS'32934'
p5809
a(lp5810
I0
aF1.0
atp5811
a((lp5812
S'9189'
p5813
aS'8422'
p5814
aS'32934'
p5815
a(lp5816
I0
aI0
aF1.0
atp5817
a((lp5818
S'8492'
p5819
aS'32934'
p5820
a(lp5821
I0
aF1.0
atp5822
a((lp5823
S'701'
p5824
aS'3356'
p5825
aS'32934'
p5826
a(lp5827
I0
aF0.198509485094851
aF1.0
atp5828
a((lp5829
S'35369'
p5830
aS'8218'
p5831
aS'32934'
p5832
a(lp5833
I0
aI0
aF1.0
atp5834
a((lp5835
S'9318'
p5836
aS'32934'
p5837
a(lp5838
I0
aF1.0
atp5839
a((lp5840
S'2497'
p5841
aS'3356'
p5842
aS'32934'
p5843
a(lp5844
I0
aF0.198509485094851
aF1.0
atp5845
a((lp5846
S'4608'
p5847
aS'1221'
p5848
aS'4637'
p5849
aS'32934'
p5850
a(lp5851
I0
aI0
aI0
aF1.0
atp5852
a((lp5853
S'5056'
p5854
aS'209'
p5855
aS'4134'
p5856
aS'9318'
p5857
aS'32934'
p5858
a(lp5859
I0
aI0
aI0
aI0
aF1.0
atp5860
a((lp5861
S'3257'
p5862
aS'3549'
p5863
aS'32934'
p5864
a(lp5865
I0
aF0.0963753387533875
aF1.0
atp5866
a((lp5867
S'6461'
p5868
aS'3549'
p5869
aS'32934'
p5870
a(lp5871
I0
aF0.0963753387533875
aF1.0
atp5872
a((lp5873
S'12779'
p5874
aS'3549'
p5875
aS'32934'
p5876
a(lp5877
I0
aF0.0963753387533875
aF1.0
atp5878
a((lp5879
S'48285'
p5880
aS'16150'
p5881
aS'32934'
p5882
a(lp5883
I0
aI0
aF1.0
atp5884
a((lp5885
S'31500'
p5886
aS'32934'
p5887
a(lp5888
I0
aF1.0
atp5889
a((lp5890
S'1280'
p5891
aS'32934'
p5892
a(lp5893
I0
aF1.0
atp5894
a((lp5895
S'6539'
p5896
aS'32934'
p5897
a(lp5898
I0
aF1.0
atp5899
a((lp5900
S'2895'
p5901
aS'3267'
p5902
aS'9002'
p5903
aS'32934'
p5904
a(lp5905
I0
aI0
aI0
aF1.0
atp5906
a((lp5907
S'10026'
p5908
aS'32934'
p5909
a(lp5910
I0
aF1.0
atp5911
a((lp5912
S'39821'
p5913
aS'9002'
p5914
aS'32934'
p5915
a(lp5916
I0
aI0
aF1.0
atp5917
a((lp5918
S'4777'
p5919
aS'2516'
p5920
aS'3549'
p5921
aS'32934'
p5922
a(lp5923
I0
aI0
aF0.0963753387533875
aF1.0
atp5924
a((lp5925
S'12350'
p5926
aS'32934'
p5927
a(lp5928
I0
aF1.0
atp5929
a((lp5930
S'680'
p5931
aS'1299'
p5932
aS'32934'
p5933
a(lp5934
I0
aI0
aF1.0
atp5935
a((lp5936
S'13030'
p5937
aS'32934'
p5938
a(lp5939
I0
aF1.0
atp5940
a((lp5941
S'29222'
p5942
aS'3303'
p5943
aS'32934'
p5944
a(lp5945
I0
aI0
aF1.0
atp5946
a((lp5947
S'1221'
p5948
aS'4637'
p5949
aS'32934'
p5950
a(lp5951
I0
aI0
aF1.0
atp5952
a((lp5953
S'29636'
p5954
aS'9318'
p5955
aS'32934'
p5956
a(lp5957
I0
aI0
aF1.0
atp5958
a((lp5959
S'3257'
p5960
aS'4134'
p5961
aS'9318'
p5962
aS'32934'
p5963
a(lp5964
I0
aI0
aI0
aF1.0
atp5965
a((lp5966
S'14537'
p5967
aS'3356'
p5968
aS'32934'
p5969
a(lp5970
I0
aF0.198509485094851
aF1.0
atp5971
a((lp5972
S'30844'
p5973
aS'32934'
p5974
a(lp5975
I0
aF1.0
atp5976
a((lp5977
S'7500'
p5978
aS'2497'
p5979
aS'3549'
p5980
aS'32934'
p5981
a(lp5982
I0
aI0
aF0.0963753387533875
aF1.0
atp5983
a((lp5984
S'19089'
p5985
aS'7162'
p5986
aS'3549'
p5987
aS'32934'
p5988
a(lp5989
I0
aI0
aF0.0963753387533875
aF1.0
atp5990
a((lp5991
S'4589'
p5992
aS'32934'
p5993
a(lp5994
I0
aF1.0
atp5995
a((lp5996
S'1930'
p5997
aS'20965'
p5998
aS'1299'
p5999
aS'32934'
p6000
a(lp6001
I0
aI0
aI0
aF1.0
atp6002
a((lp6003
S'44444'
p6004
aS'32934'
p6005
a(lp6006
I0
aF1.0
atp6007
a((lp6008
S'3561'
p6009
aS'4134'
p6010
aS'9318'
p6011
aS'32934'
p6012
a(lp6013
I0
aI0
aI0
aF1.0
atp6014
a((lp6015
S'20632'
p6016
aS'9002'
p6017
aS'32934'
p6018
a(lp6019
I0
aI0
aF1.0
atp6020
a((lp6021
S'20121'
p6022
aS'22356'
p6023
aS'32934'
p6024
a(lp6025
I0
aI0
aF1.0
atp6026
a((lp6027
S'6667'
p6028
aS'32934'
p6029
a(lp6030
I0
aF1.0
atp6031
a((lp6032
S'42708'
p6033
aS'32934'
p6034
a(lp6035
I0
aF1.0
atp6036
a((lp6037
S'51185'
p6038
aS'8220'
p6039
aS'32934'
p6040
a(lp6041
I0
aI0
aF1.0
atp6042
a((lp6043
S'1668'
p6044
aS'3356'
p6045
aS'32934'
p6046
a(lp6047
I0
aF0.198509485094851
aF1.0
atp6048
a((lp6049
S'6461'
p6050
aS'4134'
p6051
aS'9318'
p6052
aS'32934'
p6053
a(lp6054
I0
aI0
aI0
aF1.0
atp6055
a((lp6056
S'8928'
p6057
aS'32934'
p6058
a(lp6059
I0
aF1.0
atp6060
a((lp6061
S'8001'
p6062
aS'32934'
p6063
a(lp6064
I0
aF1.0
atp6065
a((lp6066
S'1299'
p6067
aS'4134'
p6068
aS'9318'
p6069
aS'32934'
p6070
a(lp6071
I0
aI0
aI0
aF1.0
atp6072
a((lp6073
S'1299'
p6074
aS'3356'
p6075
aS'32934'
p6076
a(lp6077
I0
aF0.198509485094851
aF1.0
atp6078
a((lp6079
S'41095'
p6080
aS'32934'
p6081
a(lp6082
I0
aF1.0
atp6083
a((lp6084
S'7660'
p6085
aS'2516'
p6086
aS'3549'
p6087
aS'32934'
p6088
a(lp6089
I0
aI0
aF0.0963753387533875
aF1.0
atp6090
a((lp6091
S'8426'
p6092
aS'32934'
p6093
a(lp6094
I0
aF1.0
atp6095
a((lp6096
S'2497'
p6097
aS'2914'
p6098
aS'32934'
p6099
a(lp6100
I0
aF0.00592818428184282
aF1.0
atp6101
a((lp6102
S'22548'
p6103
aS'10429'
p6104
aS'12956'
p6105
aS'2914'
p6106
aS'32934'
p6107
a(lp6108
I0
aI0
aI0
aF0.00592818428184282
aF1.0
atp6109
a((lp6110
S'8419'
p6111
aS'6461'
p6112
aS'4134'
p6113
aS'9318'
p6114
aS'32934'
p6115
a(lp6116
I0
aI0
aI0
aI0
aF1.0
atp6117
a((lp6118
S'8447'
p6119
aS'32934'
p6120
a(lp6121
I0
aF1.0
atp6122
a((lp6123
S'9002'
p6124
aS'32934'
p6125
a(lp6126
I0
aF1.0
atp6127
a((lp6128
S'5056'
p6129
aS'3356'
p6130
aS'32934'
p6131
a(lp6132
I0
aF0.198509485094851
aF1.0
atp6133
a((lp6134
S'3130'
p6135
aS'1239'
p6136
aS'3356'
p6137
aS'32934'
p6138
a(lp6139
I0
aI0
aF0.198509485094851
aF1.0
atp6140
a((lp6141
S'41495'
p6142
aS'39757'
p6143
aS'32934'
p6144
a(lp6145
I0
aI0
aF1.0
atp6146
a((lp6147
S'28289'
p6148
aS'53131'
p6149
aS'16735'
p6150
aS'3549'
p6151
aS'32934'
p6152
a(lp6153
I0
aI0
aI0
aF0.0963753387533875
aF1.0
atp6154
a((lp6155
S'12859'
p6156
aS'32934'
p6157
a(lp6158
I0
aF1.0
atp6159
a((lp6160
S'4739'
p6161
aS'32934'
p6162
a(lp6163
I0
aF1.0
atp6164
a((lp6165
S'6453'
p6166
aS'3356'
p6167
aS'32934'
p6168
a(lp6169
F0.00152439024390244
aF0.198509485094851
aF1.0
atp6170
a((lp6171
S'1103'
p6172
aS'32934'
p6173
a(lp6174
I0
aF1.0
atp6175
a((lp6176
S'8596'
p6177
aS'32934'
p6178
a(lp6179
I0
aF1.0
atp6180
a((lp6181
S'3561'
p6182
aS'3549'
p6183
aS'32934'
p6184
a(lp6185
I0
aF0.0963753387533875
aF1.0
atp6186
a((lp6187
S'6762'
p6188
aS'4134'
p6189
aS'9318'
p6190
aS'32934'
p6191
a(lp6192
I0
aI0
aI0
aF1.0
atp6193
a((lp6194
S'513'
p6195
aS'6730'
p6196
aS'32934'
p6197
a(lp6198
I0
aI0
aF1.0
atp6199
a((lp6200
S'28917'
p6201
aS'32934'
p6202
a(lp6203
I0
aF1.0
atp6204
a((lp6205
S'38809'
p6206
aS'703'
p6207
aS'701'
p6208
aS'2914'
p6209
aS'32934'
p6210
a(lp6211
I0
aI0
aI0
aF0.00592818428184282
aF1.0
atp6212
a((lp6213
S'39202'
p6214
aS'174'
p6215
aS'2914'
p6216
aS'32934'
p6217
a(lp6218
I0
aI0
aF0.00592818428184282
aF1.0
atp6219
a((lp6220
S'14361'
p6221
aS'32934'
p6222
a(lp6223
I0
aF1.0
atp6224
a((lp6225
S'7575'
p6226
aS'32934'
p6227
a(lp6228
I0
aF1.0
atp6229
a((lp6230
S'4826'
p6231
aS'32934'
p6232
a(lp6233
I0
aF1.0
atp6234
a((lp6235
S'34695'
p6236
aS'32934'
p6237
a(lp6238
I0
aF1.0
atp6239
a((lp6240
S'2497'
p6241
aS'3549'
p6242
aS'32934'
p6243
a(lp6244
I0
aF0.0963753387533875
aF1.0
atp6245
a((lp6246
S'8359'
p6247
aS'32934'
p6248
a(lp6249
I0
aF1.0
atp6250
a((lp6251
S'2914'
p6252
aS'32934'
p6253
a(lp6254
F0.00592818428184282
aF1.0
atp6255
asssS'features'
p6256
g4
(g5
(g9
(I0
I0
I2
I83
S't\x00\x00d\x01\x00\x84\x00\x00\x83\x01\x00S'
p6257
(Ng9
(I0
I0
I1
I83
S'd\x00\x00S'
p6258
(Ntp6259
(S'None'
p6260
tp6261
(tS'/home/shicho/projects/bgp_classifier/classification/features.py'
p6262
S'<lambda>'
p6263
I31
g18
(t(ttp6264
Rp6265
tp6266
(g22
tp6267
(tS'/home/shicho/projects/bgp_classifier/classification/features.py'
p6268
g6263
I31
g18
(t(ttp6269
Rp6270
cfeatures
__dict__
g6263
NN(dp6271
tp6272
Rp6273
tp6274
Rp6275
S'69.171.255.0/24'
p6276
g4
(g5
(g6265
cfeatures
__dict__
g6263
NN(dp6277
tp6278
Rp6279
tp6280
Rp6281
S'propagation'
p6282
F0.14285714285714285
sS'edit_distance'
p6283
(dp6284
S'pfx'
p6285
g4
(g5
(g9
(I0
I0
I2
I83
S't\x00\x00d\x01\x00\x84\x00\x00\x83\x01\x00S'
p6286
(Ng9
(I0
I0
I1
I83
S't\x00\x00\x83\x00\x00S'
p6287
(Ntp6288
(g14
tp6289
(tS'/home/shicho/projects/bgp_classifier/classification/features.py'
p6290
S'<lambda>'
p6291
I753
g18
(t(ttp6292
Rp6293
tp6294
(g22
tp6295
(tS'/home/shicho/projects/bgp_classifier/classification/features.py'
p6296
g6291
I753
g18
(t(ttp6297
Rp6298
cfeatures
__dict__
g6291
NN(dp6299
tp6300
Rp6301
tp6302
Rp6303
g6276
g4
(g5
(g6293
cfeatures
__dict__
g6291
NN(dp6304
tp6305
Rp6306
tp6307
Rp6308
I8
(lp6309
S'211.49.160.0/19'
p6310
aS'211.109.144.0/20'
p6311
aS'211.186.0.0/16'
p6312
aS'211.186.0.0/19'
p6313
aS'110.14.0.0/16'
p6314
aS'1.248.0.0/13'
p6315
aS'110.15.0.0/16'
p6316
aS'211.186.112.0/20'
p6317
aS'175.115.92.0/24'
p6318
aS'211.200.0.0/13'
p6319
aS'211.186.32.0/20'
p6320
aS'211.186.64.0/19'
p6321
aS'211.49.192.0/19'
p6322
aS'211.243.0.0/20'
p6323
aS'123.213.115.0/24'
p6324
aS'211.110.48.0/20'
p6325
aS'211.109.32.0/20'
p6326
aS'211.49.128.0/17'
p6327
aS'210.221.0.0/17'
p6328
aS'180.70.0.0/16'
p6329
aS'210.219.128.0/20'
p6330
aS'210.180.96.0/19'
p6331
aS'211.109.0.0/16'
p6332
aS'221.140.0.0/14'
p6333
aS'211.110.160.0/19'
p6334
aS'211.244.0.0/20'
p6335
aS'175.115.93.0/24'
p6336
aS'211.245.105.0/24'
p6337
aS'211.245.240.0/20'
p6338
aS'175.115.98.0/24'
p6339
aS'211.186.96.0/20'
p6340
aS'175.119.106.0/24'
p6341
aS'211.244.224.0/19'
p6342
aS'211.49.64.0/19'
p6343
aS'116.124.0.0/16'
p6344
aS'210.218.128.0/18'
p6345
aS'218.233.219.0/24'
p6346
aS'211.49.144.0/20'
p6347
aS'123.212.0.0/14'
p6348
aS'211.59.160.0/19'
p6349
aS'180.67.0.0/16'
p6350
aS'211.245.64.0/18'
p6351
aS'175.115.97.0/24'
p6352
aS'211.109.192.0/19'
p6353
aS'118.221.0.0/16'
p6354
aS'211.59.96.0/19'
p6355
aS'218.233.218.0/24'
p6356
aS'1.226.98.0/24'
p6357
aS'116.127.0.0/16'
p6358
aS'116.122.0.0/16'
p6359
aS'211.33.0.0/17'
p6360
aS'121.124.0.0/16'
p6361
aS'211.52.128.0/20'
p6362
aS'1.240.0.0/13'
p6363
aS'211.110.0.0/16'
p6364
aS'218.38.152.0/24'
p6365
aS'211.245.224.0/20'
p6366
aS'110.9.0.0/16'
p6367
aS'210.217.160.0/19'
p6368
aS'175.115.96.0/24'
p6369
aS'211.243.224.0/19'
p6370
aS'211.59.64.0/20'
p6371
aS'211.109.112.0/20'
p6372
aS'210.205.0.0/18'
p6373
aS'211.33.96.0/20'
p6374
aS'175.115.94.0/24'
p6375
aS'211.52.160.0/19'
p6376
aS'211.59.0.0/19'
p6377
aS'116.126.0.0/16'
p6378
aS'211.244.0.0/16'
p6379
aS'118.219.85.0/24'
p6380
aS'116.120.0.0/16'
p6381
aS'211.59.0.0/16'
p6382
aS'211.49.0.0/18'
p6383
aS'211.52.128.0/17'
p6384
aS'211.49.0.0/17'
p6385
aS'211.245.16.0/20'
p6386
aS'211.243.0.0/16'
p6387
aS'211.109.128.0/20'
p6388
aS'219.240.0.0/15'
p6389
aS'116.123.0.0/16'
p6390
aS'211.186.144.0/20'
p6391
aS'211.110.192.0/19'
p6392
aS'211.59.32.0/19'
p6393
aS'211.49.96.0/20'
p6394
aS'211.58.0.0/16'
p6395
aS'211.44.0.0/16'
p6396
aS'219.254.0.0/15'
p6397
aS'211.109.160.0/19'
p6398
aS'175.115.91.0/24'
p6399
aS'110.13.0.0/16'
p6400
aS'218.52.0.0/14'
p6401
aS'180.65.0.0/16'
p6402
aS'211.208.0.0/14'
p6403
aS'211.33.64.0/19'
p6404
aS'221.138.0.0/15'
p6405
aS'1.232.0.0/13'
p6406
aS'211.186.192.0/19'
p6407
aS'58.224.0.0/12'
p6408
aS'211.245.32.0/20'
p6409
aS'219.248.0.0/14'
p6410
aS'110.8.0.0/16'
p6411
aS'175.119.104.0/24'
p6412
aS'110.10.0.0/16'
p6413
aS'211.109.16.0/20'
p6414
aS'211.108.0.0/16'
p6415
aS'211.37.0.0/17'
p6416
aS'211.187.0.0/16'
p6417
aS'211.33.32.0/19'
p6418
aS'211.187.160.0/19'
p6419
aS'1.224.0.0/13'
p6420
aS'116.120.119.0/24'
p6421
aS'118.217.0.0/16'
p6422
aS'211.186.160.0/19'
p6423
aS'211.245.48.0/20'
p6424
asI9
(lp6425
S'210.94.13.0/24'
p6426
aS'210.220.64.0/19'
p6427
aS'218.38.0.0/15'
p6428
aS'203.246.180.0/22'
p6429
aS'210.205.176.0/20'
p6430
aS'118.218.0.0/16'
p6431
aS'123.213.112.0/24'
p6432
aS'118.222.0.0/16'
p6433
aS'211.245.192.0/20'
p6434
aS'210.94.64.0/19'
p6435
aS'210.94.96.0/19'
p6436
aS'211.243.144.0/20'
p6437
aS'218.234.0.0/15'
p6438
aS'211.244.128.0/19'
p6439
aS'180.66.0.0/16'
p6440
aS'123.213.113.0/24'
p6441
aS'218.38.7.0/24'
p6442
aS'210.205.192.0/19'
p6443
aS'180.68.0.0/16'
p6444
aS'114.200.0.0/13'
p6445
aS'211.244.192.0/19'
p6446
aS'118.216.0.0/16'
p6447
aS'211.244.32.0/19'
p6448
aS'211.244.64.0/20'
p6449
aS'203.242.64.0/20'
p6450
aS'180.69.0.0/16'
p6451
aS'203.246.176.0/22'
p6452
aS'218.55.99.0/24'
p6453
aS'203.246.176.0/21'
p6454
aS'203.255.192.0/20'
p6455
aS'118.219.84.0/24'
p6456
aS'210.219.160.0/20'
p6457
aS'218.232.0.0/15'
p6458
aS'211.244.176.0/20'
p6459
aS'211.245.104.0/24'
p6460
aS'218.50.0.0/15'
p6461
aS'118.219.86.0/24'
p6462
aS'123.213.114.0/24'
p6463
aS'218.54.137.0/24'
p6464
aS'210.219.144.0/20'
p6465
aS'211.245.128.0/17'
p6466
aS'211.243.80.0/20'
p6467
aS'218.48.0.0/15'
p6468
aS'210.205.128.0/17'
p6469
aS'211.243.96.0/19'
p6470
aS'180.64.0.0/16'
p6471
aS'211.245.160.0/20'
p6472
aS'218.48.31.0/24'
p6473
aS'123.213.111.0/24'
p6474
aS'210.94.0.0/19'
p6475
aS'118.223.0.0/16'
p6476
aS'203.242.120.0/21'
p6477
aS'218.236.0.0/14'
p6478
aS'211.243.160.0/19'
p6479
aS'210.219.176.0/20'
p6480
aS'118.223.168.0/24'
p6481
aS'211.243.192.0/20'
p6482
aS'118.220.0.0/16'
p6483
aS'118.219.0.0/16'
p6484
aS'222.232.0.0/13'
p6485
aS'123.213.110.0/24'
p6486
aS'210.220.160.0/19'
p6487
aS'211.244.96.0/19'
p6488
aS'118.219.87.0/24'
p6489
aS'211.245.144.0/20'
p6490
asI5
(lp6491
S'61.101.0.0/17'
p6492
aS'61.101.128.0/18'
p6493
aS'61.101.32.0/20'
p6494
aS'61.101.192.0/19'
p6495
aS'210.101.205.0/24'
p6496
asI6
(lp6497
S'210.101.208.0/24'
p6498
aS'210.101.212.0/24'
p6499
aS'210.101.204.0/24'
p6500
aS'61.98.128.0/17'
p6501
aS'210.101.202.0/24'
p6502
aS'210.101.213.0/24'
p6503
aS'202.167.215.0/24'
p6504
aS'210.101.223.0/24'
p6505
aS'210.101.211.0/24'
p6506
aS'210.101.195.0/24'
p6507
aS'210.101.214.0/24'
p6508
aS'210.101.219.0/24'
p6509
aS'210.101.209.0/24'
p6510
aS'210.101.220.0/24'
p6511
aS'61.99.128.0/17'
p6512
aS'210.101.203.0/24'
p6513
aS'210.101.206.0/24'
p6514
aS'221.133.55.0/24'
p6515
aS'210.101.200.0/24'
p6516
aS'210.101.201.0/24'
p6517
aS'210.101.207.0/24'
p6518
aS'210.101.222.0/24'
p6519
aS'123.111.175.0/24'
p6520
aS'61.105.0.0/16'
p6521
asI7
(lp6522
S'61.254.0.0/15'
p6523
aS'210.117.64.0/18'
p6524
aS'210.181.112.0/20'
p6525
aS'61.98.96.0/20'
p6526
aS'211.109.224.0/20'
p6527
aS'121.125.0.0/16'
p6528
aS'110.11.0.0/16'
p6529
aS'61.98.64.0/20'
p6530
aS'211.52.224.0/20'
p6531
aS'211.187.128.0/20'
p6532
aS'210.181.80.0/20'
p6533
aS'210.101.199.0/24'
p6534
aS'175.112.0.0/12'
p6535
aS'116.127.208.0/24'
p6536
aS'58.229.232.0/22'
p6537
aS'123.111.138.0/24'
p6538
aS'116.127.211.0/24'
p6539
aS'210.101.196.0/24'
p6540
aS'58.120.0.0/13'
p6541
aS'61.98.32.0/19'
p6542
aS'110.12.0.0/16'
p6543
aS'116.121.10.0/24'
p6544
aS'175.119.105.0/24'
p6545
aS'211.110.224.0/20'
p6546
aS'211.49.224.0/20'
p6547
aS'210.101.192.0/24'
p6548
aS'210.181.96.0/19'
p6549
aS'116.125.0.0/16'
p6550
aS'123.111.139.0/24'
p6551
aS'61.253.0.0/16'
p6552
aS'211.186.224.0/20'
p6553
aS'211.59.224.0/20'
p6554
aS'210.117.0.0/18'
p6555
aS'210.117.96.0/20'
p6556
aS'124.111.0.0/16'
p6557
aS'211.212.0.0/14'
p6558
aS'211.59.208.0/20'
p6559
aS'211.108.21.0/24'
p6560
aS'180.71.0.0/16'
p6561
aS'116.127.210.0/24'
p6562
aS'211.245.0.0/17'
p6563
aS'116.121.0.0/16'
p6564
aS'61.98.0.0/19'
p6565
aS'211.41.96.0/19'
p6566
aS'123.111.176.0/24'
p6567
aS'61.98.0.0/16'
p6568
aS'211.245.0.0/20'
p6569
aS'211.176.0.0/14'
p6570
aS'123.111.0.0/16'
p6571
aS'123.111.174.0/24'
p6572
aS'61.254.176.0/20'
p6573
aS'58.229.236.0/22'
p6574
aS'210.101.192.0/19'
p6575
aS'211.214.249.0/24'
p6576
aS'210.101.193.0/24'
p6577
aS'211.49.240.0/20'
p6578
aS'210.181.64.0/19'
p6579
aS'175.115.95.0/24'
p6580
aS'116.127.209.0/24'
p6581
aS'210.101.197.0/24'
p6582
aS'211.117.0.0/16'
p6583
aS'61.255.176.0/20'
p6584
aS'210.101.198.0/24'
p6585
aS'61.99.0.0/16'
p6586
asssS'asn'
p6587
g4
(g5
(g9
(I0
I0
I2
I83
S't\x00\x00d\x01\x00\x84\x00\x00\x83\x01\x00S'
p6588
(Ng9
(I0
I0
I1
I83
S'd\x00\x00S'
p6589
(Ntp6590
(g6260
tp6591
(tS'/home/shicho/projects/bgp_classifier/classification/features.py'
p6592
g6291
I746
g18
(t(ttp6593
Rp6594
tp6595
(g22
tp6596
(tS'/home/shicho/projects/bgp_classifier/classification/features.py'
p6597
g6291
I746
g18
(t(ttp6598
Rp6599
cfeatures
__dict__
g6291
NN(dp6600
tp6601
Rp6602
tp6603
Rp6604
S'9318'
p6605
g4
(g5
(g6594
cfeatures
__dict__
g6291
NN(dp6606
tp6607
Rp6608
tp6609
Rp6610
S'32934'
p6611
I4
ssssS'rarity'
p6612
(dp6613
S'anon_paths'
p6614
g4
(g5
(g9
(I0
I0
I2
I83
S't\x00\x00d\x01\x00\x84\x00\x00\x83\x01\x00S'
p6615
(Ng9
(I0
I0
I2
I83
S't\x00\x00d\x01\x00\x84\x00\x00\x83\x01\x00S'
p6616
(Ng9
(I0
I0
I2
I83
S't\x00\x00d\x01\x00\x84\x00\x00\x83\x01\x00S'
p6617
(Ng9
(I0
I0
I1
I83
S'd\x01\x00S'
p6618
(NI0
tp6619
(t(tS'/home/shicho/projects/bgp_classifier/classification/features.py'
p6620
g6291
I430
g18
(t(ttp6621
Rp6622
tp6623
(g22
tp6624
(tS'/home/shicho/projects/bgp_classifier/classification/features.py'
p6625
g6291
I429
S'\x00\x01'
p6626
(t(ttp6627
Rp6628
tp6629
(g22
tp6630
(tS'/home/shicho/projects/bgp_classifier/classification/features.py'
p6631
g6291
I429
g18
(t(ttp6632
Rp6633
tp6634
(g22
tp6635
(tS'/home/shicho/projects/bgp_classifier/classification/features.py'
p6636
g6291
I429
g18
(t(ttp6637
Rp6638
cfeatures
__dict__
g6291
NN(dp6639
tp6640
Rp6641
tp6642
Rp6643
sS'depth'
p6644
g4
(g5
(g9
(I0
I0
I1
I83
S't\x00\x00\x83\x00\x00S'
p6645
(Ntp6646
(g14
tp6647
(tS'/home/shicho/projects/bgp_classifier/classification/features.py'
p6648
g6291
I427
g18
(t(ttp6649
Rp6650
cfeatures
__dict__
g6291
NN(dp6651
tp6652
Rp6653
tp6654
Rp6655
g5411
(lp6656
ssS'hijacker_score'
p6657
g4
(g5
(g9
(I0
I0
I2
I83
S't\x00\x00d\x01\x00\x84\x00\x00\x83\x01\x00S'
p6658
(Ng9
(I0
I0
I1
I83
S't\x00\x00\x83\x00\x00S'
p6659
(Ntp6660
(S'set'
p6661
tp6662
(tS'/home/shicho/projects/bgp_classifier/classification/features.py'
p6663
g6291
I431
g18
(t(ttp6664
Rp6665
tp6666
(g22
tp6667
(tS'/home/shicho/projects/bgp_classifier/classification/features.py'
p6668
g6291
I431
g18
(t(ttp6669
Rp6670
cfeatures
__dict__
g6291
NN(dp6671
tp6672
Rp6673
tp6674
Rp6675
sS'freq'
p6676
g4
(g5
(g9
(I0
I0
I2
I83
S't\x00\x00d\x01\x00\x84\x00\x00\x83\x01\x00S'
p6677
(Ng9
(I0
I0
I2
I83
S't\x00\x00d\x01\x00\x84\x00\x00\x83\x01\x00S'
p6678
(Ng9
(I0
I0
I1
I83
S'd\x01\x00S'
p6679
(NI0
tp6680
(t(tS'/home/shicho/projects/bgp_classifier/classification/features.py'
p6681
g6291
I428
g18
(t(ttp6682
Rp6683
tp6684
(g22
tp6685
(tS'/home/shicho/projects/bgp_classifier/classification/features.py'
p6686
g6291
I428
g18
(t(ttp6687
Rp6688
tp6689
(g22
tp6690
(tS'/home/shicho/projects/bgp_classifier/classification/features.py'
p6691
g6291
I428
g18
(t(ttp6692
Rp6693
cfeatures
__dict__
g6291
NN(dp6694
tp6695
Rp6696
tp6697
Rp6698
g5411
g4
(g5
(g6688
cfeatures
__dict__
g6291
NN(dp6699
tp6700
Rp6701
tp6702
Rp6703
S'normal'
p6704
g4
(g5
(g6683
cfeatures
__dict__
g6291
NN(dp6705
tp6706
Rp6707
tp6708
Rp6709
I0
I1
ssssS'sum_up'
p6710
(dp6711
g6704
(lp6712
F0.0
asssS'submoas'
p6713
(dp6714
S'is_multi'
p6715
I0
ssS'rarity_new'
p6716
(dp6717
S'union'
p6718
(dp6719
S'32934'
p6720
F0.0
ssS'cosin'
p6721
(dp6722
g6720
cnumpy.core.multiarray
scalar
p6723
(cnumpy
dtype
p6724
(S'f8'
p6725
I0
I1
tp6726
Rp6727
(I3
S'<'
p6728
NNNI-1
I-1
I0
tp6729
bS'\x00\x00\x00\x00\x00\x00\x00\x00'
p6730
tp6731
Rp6732
sssS'num_of_valleys'
p6733
(dp6734
S'anon_ases'
p6735
g4
(g5
(g9
(I0
I0
I2
I83
S't\x00\x00d\x01\x00\x84\x00\x00\x83\x01\x00S'
p6736
(Ng9
(I0
I0
I2
I83
S't\x00\x00d\x01\x00\x84\x00\x00\x83\x01\x00S'
p6737
(Ng9
(I0
I0
I2
I83
S't\x00\x00d\x01\x00\x84\x00\x00\x83\x01\x00S'
p6738
(Ng9
(I0
I0
I1
I83
S'd\x01\x00S'
p6739
(NI0
tp6740
(t(tS'/home/shicho/projects/bgp_classifier/classification/features.py'
p6741
g6291
I367
g18
(t(ttp6742
Rp6743
tp6744
(g22
tp6745
(tS'/home/shicho/projects/bgp_classifier/classification/features.py'
p6746
g6291
I367
g18
(t(ttp6747
Rp6748
tp6749
(g22
tp6750
(tS'/home/shicho/projects/bgp_classifier/classification/features.py'
p6751
g6291
I366
S'\x03\x01'
p6752
(t(ttp6753
Rp6754
tp6755
(g22
tp6756
(tS'/home/shicho/projects/bgp_classifier/classification/features.py'
p6757
g6291
I366
g18
(t(ttp6758
Rp6759
cfeatures
__dict__
g6291
NN(dp6760
tp6761
Rp6762
tp6763
Rp6764
sg6644
(lp6765
sg6676
g4
(g5
(g9
(I0
I0
I2
I83
S't\x00\x00d\x01\x00\x84\x00\x00\x83\x01\x00S'
p6766
(Ng9
(I0
I0
I1
I83
S'd\x01\x00S'
p6767
(NI0
tp6768
(t(tS'/home/shicho/projects/bgp_classifier/classification/features.py'
p6769
g6291
I365
g18
(t(ttp6770
Rp6771
tp6772
(g22
tp6773
(tS'/home/shicho/projects/bgp_classifier/classification/features.py'
p6774
g6291
I365
g18
(t(ttp6775
Rp6776
cfeatures
__dict__
g6291
NN(dp6777
tp6778
Rp6779
tp6780
Rp6781
g6704
g4
(g5
(g6771
cfeatures
__dict__
g6291
NN(dp6782
tp6783
Rp6784
tp6785
Rp6786
I0
I1
ssssS'prepending'
p6787
F0.0
sS'moas'
p6788
(dp6789
g6715
I0
ssssS'end_time'
p6790
cdatetime
datetime
p6791
(S'\x07\xdb\x03\x16\t\x0f\x00\x00\x00\x00'
p6792
tp6793
Rp6794
sS'innocent_as'
p6795
S' '
p6796
sS'pfxes_of_hijacker'
p6797
(dp6798
S'49318'
p6799
(lp6800
S'188.93.176.0/21'
p6801
asS'19318'
p6802
(lp6803
S'209.159.144.0/20'
p6804
aS'69.10.32.0/20'
p6805
aS'199.48.162.0/24'
p6806
aS'66.45.224.0/19'
p6807
aS'216.219.80.0/20'
p6808
aS'200.115.64.0/21'
p6809
aS'64.20.32.0/24'
p6810
aS'2604:a00::/32'
p6811
aS'199.48.160.0/24'
p6812
aS'200.115.71.0/24'
p6813
aS'74.50.64.0/19'
p6814
aS'66.23.225.0/24'
p6815
aS'66.245.180.0/22'
p6816
aS'208.89.32.0/24'
p6817
aS'69.10.32.0/19'
p6818
aS'190.112.200.0/22'
p6819
aS'67.217.48.0/20'
p6820
aS'66.23.224.0/20'
p6821
aS'69.10.48.0/20'
p6822
aS'2610:88::/32'
p6823
aS'64.20.32.0/19'
p6824
aS'200.35.152.0/22'
p6825
aS'64.20.47.0/24'
p6826
aS'69.164.240.0/20'
p6827
aS'205.209.96.0/19'
p6828
aS'68.168.208.0/20'
p6829
aS'66.245.176.0/20'
p6830
aS'202.53.73.0/24'
p6831
aS'190.112.192.0/22'
p6832
asS'29318'
p6833
(lp6834
S'195.149.68.0/24'
p6835
asS'39318'
p6836
(lp6837
S'77.73.96.0/22'
p6838
aS'91.199.3.0/24'
p6839
aS'91.209.133.0/24'
p6840
aS'77.73.103.0/24'
p6841
aS'77.73.100.0/23'
p6842
aS'193.239.210.0/23'
p6843
aS'91.208.211.0/24'
p6844
aS'77.73.102.0/24'
p6845
aS'2a03:a800::/32'
p6846
aS'188.93.152.0/21'
p6847
asS'9318'
p6848
(lp6849
g6523
ag6310
ag6524
ag6525
ag6426
ag6526
ag6427
ag6527
ag6311
ag6498
ag6312
ag6313
ag6428
ag6499
ag6314
ag6528
ag6529
ag6315
ag6429
ag6530
ag6430
ag6316
ag6317
ag6431
ag6318
ag6531
ag6532
ag6319
ag6320
ag6321
ag6432
ag6500
ag6322
ag6433
ag6533
ag6501
ag6434
ag6323
ag6324
ag6534
ag6325
ag6435
ag6436
ag6437
ag6438
ag6326
ag6327
ag6439
ag6328
ag6440
ag6492
ag6441
ag6502
ag6503
ag6329
ag6330
ag6535
ag6331
ag6332
ag6504
ag6333
ag6536
ag6537
ag6334
ag6442
ag6538
ag6335
ag6336
ag6539
ag6540
ag6505
ag6337
ag6506
ag6338
ag6443
ag6339
ag6541
ag6542
ag6543
ag6544
ag6340
ag6341
ag6444
ag6445
ag6545
ag6342
ag6343
ag6344
ag6446
ag6447
ag6345
ag6507
ag6508
ag6346
ag6448
ag6546
ag6509
ag6510
ag6547
ag6449
ag6548
ag6347
ag6348
ag6349
ag6350
ag6549
ag6351
ag6352
ag6450
ag6550
ag6551
ag6353
ag6451
ag6354
ag6355
ag6552
ag6356
ag6511
ag6553
ag6357
ag6554
ag6358
ag6512
ag6452
ag6453
ag6454
ag6555
ag6359
ag6360
ag6556
ag6361
ag6493
ag6455
ag6362
ag6456
ag6557
ag6558
ag6494
ag6457
ag6458
ag6363
ag6364
ag6365
ag6513
ag6366
ag6459
ag6559
ag6460
ag6461
ag6560
ag6367
ag6368
ag6561
ag6369
ag6462
ag6514
ag6370
ag6515
ag6371
ag6516
ag6517
ag6562
ag6372
ag6563
ag6463
ag6564
ag6565
ag6566
ag6567
ag6568
ag6518
ag6464
ag6465
ag6373
ag6374
ag6375
ag6376
ag6466
ag6377
ag6378
ag6379
ag6380
ag6381
ag6382
ag6383
ag6467
ag6468
ag6384
ag6469
ag6385
ag6569
ag6386
ag6570
ag6571
ag6387
ag6388
ag6389
ag6470
ag6390
ag6471
ag6391
ag6392
ag6572
ag6472
ag6573
ag6393
ag6473
ag6394
ag6474
ag6475
ag6395
ag6396
ag6397
ag6574
ag6575
ag6398
ag6399
ag6576
ag6476
ag6495
ag6400
ag6401
ag6519
ag6402
ag6403
ag6477
ag6404
ag6405
ag6406
ag6478
ag6479
ag6480
ag6577
ag6578
ag6481
ag6407
ag6408
ag6579
ag6580
ag6482
ag6409
ag6483
ag6410
ag6581
ag6496
ag6411
ag6412
ag6413
ag6582
ag6414
ag6484
ag6415
ag6416
ag6583
ag6520
ag6485
ag6486
ag6417
ag6487
ag6418
ag6584
ag6419
ag6521
ag6488
ag6420
ag6585
ag6489
ag6586
ag6421
ag6422
ag6423
ag6490
ag6424
assS'hijack_as'
p6850
g6605
sS'hijack_prefix'
p6851
g6276
sS'victim_as'
p6852
g6611
sS'verification'
p6853
(dp6854
S'hijacker_in_the_middle'
p6855
I01
sS'innocent_as_in_the_middle'
p6856
I00
sS'hijacker_as_origin_as'
p6857
I00
sS'innocent_as_as_origin_as'
p6858
I00
sS'all_paths_with_hijacker'
p6859
(dp6860
g6605
(lp6861
(lp6862
S'6762'
p6863
aS'4134'
p6864
aS'9318'
p6865
aS'32934'
p6866
aS'32934'
p6867
aS'32934'
p6868
aa(lp6869
S'1299'
p6870
aS'4134'
p6871
aS'9318'
p6872
aS'32934'
p6873
aS'32934'
p6874
ag6868
aa(lp6875
S'3561'
p6876
aS'4134'
p6877
aS'9318'
p6878
aS'32934'
p6879
aS'32934'
p6880
ag6868
aa(lp6881
S'7018'
p6882
aS'4134'
p6883
aS'9318'
p6884
aS'32934'
p6885
aS'32934'
p6886
ag6868
aa(lp6887
S'5056'
p6888
aS'209'
p6889
aS'4134'
p6890
aS'9318'
p6891
aS'32934'
p6892
aS'32934'
p6893
ag6868
aa(lp6894
S'3257'
p6895
aS'4134'
p6896
aS'9318'
p6897
aS'32934'
p6898
aS'32934'
p6899
ag6868
aa(lp6900
S'286'
p6901
aS'4134'
p6902
aS'9318'
p6903
aS'32934'
p6904
aS'32934'
p6905
ag6868
aa(lp6906
S'3257'
p6907
aS'4134'
p6908
aS'9318'
p6909
aS'32934'
p6910
aS'32934'
p6911
ag6868
aa(lp6912
S'1299'
p6913
aS'4134'
p6914
aS'9318'
p6915
aS'32934'
p6916
aS'32934'
p6917
ag6868
aa(lp6918
S'6461'
p6919
aS'4134'
p6920
aS'9318'
p6921
aS'32934'
p6922
aS'32934'
p6923
ag6868
aa(lp6924
S'3257'
p6925
aS'4134'
p6926
aS'9318'
p6927
aS'32934'
p6928
aS'32934'
p6929
ag6868
aa(lp6930
S'6762'
p6931
aS'4134'
p6932
aS'9318'
p6933
aS'32934'
p6934
aS'32934'
p6935
ag6868
aa(lp6936
S'6762'
p6937
aS'4134'
p6938
aS'9318'
p6939
aS'32934'
p6940
aS'32934'
p6941
ag6868
aa(lp6942
S'9318'
p6943
aS'9318'
p6944
aS'9318'
p6945
aS'9318'
p6946
aS'32934'
p6947
aS'32934'
p6948
ag6868
aa(lp6949
S'6067'
p6950
aS'286'
p6951
aS'4134'
p6952
aS'9318'
p6953
aS'32934'
p6954
aS'32934'
p6955
ag6868
aa(lp6956
S'6762'
p6957
aS'4134'
p6958
aS'9318'
p6959
aS'32934'
p6960
aS'32934'
p6961
ag6868
aa(lp6962
S'3257'
p6963
aS'4134'
p6964
aS'9318'
p6965
aS'32934'
p6966
aS'32934'
p6967
ag6868
aa(lp6968
S'3561'
p6969
aS'4134'
p6970
aS'9318'
p6971
aS'32934'
p6972
aS'32934'
p6973
ag6868
aa(lp6974
S'3257'
p6975
aS'4134'
p6976
aS'9318'
p6977
aS'32934'
p6978
aS'32934'
p6979
ag6868
aa(lp6980
S'174'
p6981
aS'4134'
p6982
aS'9318'
p6983
aS'32934'
p6984
aS'32934'
p6985
ag6868
aa(lp6986
S'3257'
p6987
aS'4134'
p6988
aS'9318'
p6989
aS'32934'
p6990
aS'32934'
p6991
ag6868
aa(lp6992
S'7018'
p6993
aS'4134'
p6994
aS'9318'
p6995
aS'32934'
p6996
aS'32934'
p6997
ag6868
aa(lp6998
S'8419'
p6999
aS'6461'
p7000
aS'4134'
p7001
aS'9318'
p7002
aS'32934'
p7003
aS'32934'
p7004
ag6868
aa(lp7005
S'8419'
p7006
aS'9318'
p7007
aS'32934'
p7008
aS'32934'
p7009
ag6868
aa(lp7010
S'8419'
p7011
aS'6461'
p7012
aS'4134'
p7013
aS'9318'
p7014
aS'32934'
p7015
aS'32934'
p7016
ag6868
aa(lp7017
S'29636'
p7018
aS'9318'
p7019
aS'32934'
p7020
aS'32934'
p7021
ag6868
aa(lp7022
S'39202'
p7023
aS'174'
p7024
aS'4134'
p7025
aS'9318'
p7026
aS'32934'
p7027
aS'32934'
p7028
ag6868
aa(lp7029
S'286'
p7030
aS'4134'
p7031
aS'9318'
p7032
aS'32934'
p7033
aS'32934'
p7034
ag6868
aa(lp7035
S'286'
p7036
aS'4134'
p7037
aS'9318'
p7038
aS'32934'
p7039
aS'32934'
p7040
ag6868
aa(lp7041
S'13237'
p7042
aS'3257'
p7043
aS'4134'
p7044
aS'9318'
p7045
aS'32934'
p7046
aS'32934'
p7047
ag6868
aassS'hege_score'
p7048
(dp7049
S'32934'
p7050
(dp7051
S'web'
p7052
(dp7053
S'32787'
p7054
F0.0138888888888889
sS'6453'
p7055
F0.00152439024390244
sS'3356'
p7056
F0.198509485094851
sS'2914'
p7057
F0.00592818428184282
sS'3549'
p7058
F0.0963753387533875
ssS'loc'
p7059
(dp7060
S'6461'
p7061
F0.05128205128205128
sS'4134'
p7062
F0.8974358974358974
sS'3257'
p7063
F0.07692307692307693
sS'9318'
p7064
F1.0
sS'174'
p7065
F0.07692307692307693
sS'286'
p7066
F0.07692307692307693
sssss.