(dp0
S'category'
p1
S'origin_change'
p2
sS'as_paths'
p3
ccollections
defaultdict
p4
(cdill._dill
_create_function
p5
(cdill._dill
_load_type
p6
(S'CodeType'
p7
tp8
Rp9
(I0
I0
I2
I83
S't\x00\x00d\x01\x00\x84\x00\x00\x83\x01\x00S'
p10
(Ng9
(I0
I0
I2
I83
S't\x00\x00d\x01\x00\x84\x00\x00\x83\x01\x00S'
p11
(Ng9
(I0
I0
I1
I83
S't\x00\x00\x83\x00\x00S'
p12
(Ntp13
(S'list'
p14
tp15
(tS'/home/shicho/projects/bgp_classifier/classification/histobgpstream.py'
p16
S'<lambda>'
p17
I93
S''
p18
(t(ttp19
Rp20
tp21
(S'defaultdict'
p22
tp23
(tS'/home/shicho/projects/bgp_classifier/classification/histobgpstream.py'
p24
g17
I93
g18
(t(ttp25
Rp26
tp27
(g22
tp28
(tS'/home/shicho/projects/bgp_classifier/classification/histobgpstream.py'
p29
g17
I93
g18
(t(ttp30
Rp31
chistobgpstream
__dict__
g17
NN(dp32
tp33
Rp34
tp35
Rp36
S'route-views.jinx'
p37
g4
(g5
(g26
chistobgpstream
__dict__
g17
NN(dp38
tp39
Rp40
tp41
Rp42
S'196.223.14.55'
p43
g4
(g5
(g20
chistobgpstream
__dict__
g17
NN(dp44
tp45
Rp46
tp47
Rp48
S'95.128.184.0/22'
p49
(lp50
(I1410242401
S'rib'
p51
S'30844 6939 5603 34547'
p52
tp53
a(I1410271035
S'updates'
p54
S'30844 6939 1239'
p55
tp56
asssS'route-views3'
p57
g4
(g5
(g26
chistobgpstream
__dict__
g17
NN(dp58
tp59
Rp60
tp61
Rp62
S'205.171.3.22'
p63
g4
(g5
(g20
chistobgpstream
__dict__
g17
NN(dp64
tp65
Rp66
tp67
Rp68
S'95.128.184.0/22'
p69
(lp70
(I1410242401
g51
S'209 2914 5603 34547'
p71
tp72
a(I1410250230
g54
S'209 3356 5603 34547'
p73
tp74
a(I1410250536
g54
S'209 2914 5603 34547'
p75
tp76
a(I1410271007
g54
S'209 1239'
p77
tp78
assS'195.215.109.254'
p79
g4
(g5
(g20
chistobgpstream
__dict__
g17
NN(dp80
tp81
Rp82
tp83
Rp84
S'95.128.184.0/22'
p85
(lp86
(I1410242401
g51
S'3292 3356 5603 34547'
p87
tp88
a(I1410271011
g54
S'3292 1239'
p89
tp90
assS'72.36.126.8'
p91
g4
(g5
(g20
chistobgpstream
__dict__
g17
NN(dp92
tp93
Rp94
tp95
Rp96
S'95.128.184.0/22'
p97
(lp98
(I1410242401
g51
S'40387 7018 3356 5603 34547'
p99
tp100
a(I1410271008
g54
S'40387 7018 1239'
p101
tp102
assS'87.82.50.207'
p103
g4
(g5
(g20
chistobgpstream
__dict__
g17
NN(dp104
tp105
Rp106
tp107
Rp108
S'95.128.184.0/22'
p109
(lp110
(I1410242401
g51
S'4589 2914 5603 34547'
p111
tp112
a(I1410271007
g54
S'4589 3257 1239'
p113
tp114
assS'89.149.178.10'
p115
g4
(g5
(g20
chistobgpstream
__dict__
g17
NN(dp116
tp117
Rp118
tp119
Rp120
S'95.128.184.0/22'
p121
(lp122
(I1410242401
g51
S'3257 3356 5603 34547'
p123
tp124
a(I1410271010
g54
S'3257 1239'
p125
tp126
assS'202.147.61.12'
p127
g4
(g5
(g20
chistobgpstream
__dict__
g17
NN(dp128
tp129
Rp130
tp131
Rp132
S'95.128.184.0/22'
p133
(lp134
(I1410242401
g51
S'10026 3549 5603 34547'
p135
tp136
a(I1410271031
g54
S'10026 3257 1239'
p137
tp138
assS'202.147.0.142'
p139
g4
(g5
(g20
chistobgpstream
__dict__
g17
NN(dp140
tp141
Rp142
tp143
Rp144
S'95.128.184.0/22'
p145
(lp146
(I1410242401
g51
S'10026 3549 5603 34547'
p147
tp148
a(I1410271030
g54
S'10026 1239'
p149
tp150
assS'134.222.87.4'
p151
g4
(g5
(g20
chistobgpstream
__dict__
g17
NN(dp152
tp153
Rp154
tp155
Rp156
S'95.128.184.0/22'
p157
(lp158
(I1410242401
g51
S'286 2914 5603 34547'
p159
tp160
a(I1410271007
g54
S'286 1239'
p161
tp162
assS'205.171.202.202'
p163
g4
(g5
(g20
chistobgpstream
__dict__
g17
NN(dp164
tp165
Rp166
tp167
Rp168
S'95.128.184.0/22'
p169
(lp170
(I1410242401
g51
S'209 3356 5603 34547'
p171
tp172
a(I1410271007
g54
S'209 1239'
p173
tp174
assS'74.40.7.35'
p175
g4
(g5
(g20
chistobgpstream
__dict__
g17
NN(dp176
tp177
Rp178
tp179
Rp180
S'95.128.184.0/22'
p181
(lp182
(I1410242401
g51
S'5650 2914 5603 34547'
p183
tp184
assS'206.24.210.80'
p185
g4
(g5
(g20
chistobgpstream
__dict__
g17
NN(dp186
tp187
Rp188
tp189
Rp190
S'95.128.184.0/22'
p191
(lp192
(I1410242401
g51
S'3561 3356 5603 34547'
p193
tp194
a(I1410271007
g54
S'3561 1239'
p195
tp196
assS'205.171.202.207'
p197
g4
(g5
(g20
chistobgpstream
__dict__
g17
NN(dp198
tp199
Rp200
tp201
Rp202
S'95.128.184.0/22'
p203
(lp204
(I1410242401
g51
S'209 3356 5603 34547'
p205
tp206
a(I1410271007
g54
S'209 1239'
p207
tp208
assS'216.218.252.164'
p209
g4
(g5
(g20
chistobgpstream
__dict__
g17
NN(dp210
tp211
Rp212
tp213
Rp214
S'95.128.184.0/22'
p215
(lp216
(I1410242401
g51
S'6939 5603 34547'
p217
tp218
a(I1410271007
g54
S'6939 1239'
p219
tp220
asssS'route-views2'
p221
g4
(g5
(g26
chistobgpstream
__dict__
g17
NN(dp222
tp223
Rp224
tp225
Rp226
S'195.22.216.188'
p227
g4
(g5
(g20
chistobgpstream
__dict__
g17
NN(dp228
tp229
Rp230
tp231
Rp232
S'95.128.184.0/22'
p233
(lp234
(I1410242408
g51
S'6762 3356 5603 34547'
p235
tp236
a(I1410271038
g54
S'6762 1239'
p237
tp238
assS'164.128.32.11'
p239
g4
(g5
(g20
chistobgpstream
__dict__
g17
NN(dp240
tp241
Rp242
tp243
Rp244
S'95.128.184.0/22'
p245
(lp246
(I1410242408
g51
S'3303 2914 5603 34547'
p247
tp248
a(I1410271014
g54
S'3303 1239'
p249
tp250
assS'194.153.0.253'
p251
g4
(g5
(g20
chistobgpstream
__dict__
g17
NN(dp252
tp253
Rp254
tp255
Rp256
S'95.128.184.0/22'
p257
(lp258
(I1410242408
g51
S'5413 2914 5603 34547'
p259
tp260
assS'157.130.10.233'
p261
g4
(g5
(g20
chistobgpstream
__dict__
g17
NN(dp262
tp263
Rp264
tp265
Rp266
S'95.128.184.0/22'
p267
(lp268
(I1410242408
g51
S'701 2914 5603 34547'
p269
tp270
a(I1410271043
g54
S'701 1239'
p271
tp272
assS'203.181.248.168'
p273
g4
(g5
(g20
chistobgpstream
__dict__
g17
NN(dp274
tp275
Rp276
tp277
Rp278
S'95.128.184.0/22'
p279
(lp280
(I1410242408
g51
S'7660 2516 3356 5603 34547'
p281
tp282
a(I1410271021
g54
S'7660 2516 209 1239'
p283
tp284
assS'68.67.63.245'
p285
g4
(g5
(g20
chistobgpstream
__dict__
g17
NN(dp286
tp287
Rp288
tp289
Rp290
S'95.128.184.0/22'
p291
(lp292
(I1410242408
g51
S'22652 3356 5603 34547'
p293
tp294
a(I1410271037
g54
S'22652 6453 1239'
p295
tp296
assS'154.11.98.225'
p297
g4
(g5
(g20
chistobgpstream
__dict__
g17
NN(dp298
tp299
Rp300
tp301
Rp302
S'95.128.184.0/22'
p303
(lp304
(I1410242408
g51
S'852 174 34547 34547 34547 34547 34547 34547 34547 34547 34547 34547 34547'
p305
tp306
assS'216.18.31.102'
p307
g4
(g5
(g20
chistobgpstream
__dict__
g17
NN(dp308
tp309
Rp310
tp311
Rp312
S'95.128.184.0/22'
p313
(lp314
(I1410242408
g51
S'6539 577 2914 5603 34547'
p315
tp316
assS'137.164.16.84'
p317
g4
(g5
(g20
chistobgpstream
__dict__
g17
NN(dp318
tp319
Rp320
tp321
Rp322
S'95.128.184.0/22'
p323
(lp324
(I1410242408
g51
S'2152 3356 5603 34547'
p325
tp326
assS'95.85.0.2'
p327
g4
(g5
(g20
chistobgpstream
__dict__
g17
NN(dp328
tp329
Rp330
tp331
Rp332
S'95.128.184.0/22'
p333
(lp334
(I1410242408
g51
S'200130 2914 5603 34547'
p335
tp336
a(I1410271009
g54
S'200130 1299 1239'
p337
tp338
assS'67.17.82.114'
p339
g4
(g5
(g20
chistobgpstream
__dict__
g17
NN(dp340
tp341
Rp342
tp343
Rp344
S'95.128.184.0/22'
p345
(lp346
(I1410242408
g51
S'3549 3356 5603 34547'
p347
tp348
assS'129.250.0.11'
p349
g4
(g5
(g20
chistobgpstream
__dict__
g17
NN(dp350
tp351
Rp352
tp353
Rp354
S'95.128.184.0/22'
p355
(lp356
(I1410242408
g51
S'2914 5603 34547'
p357
tp358
a(I1410271010
g54
S'2914 1239'
p359
tp360
a(I1410271208
g51
S'2914 5603 34547'
p361
tp362
assS'144.228.241.130'
p363
g4
(g5
(g20
chistobgpstream
__dict__
g17
NN(dp364
tp365
Rp366
tp367
Rp368
S'95.128.184.0/22'
p369
(lp370
(I1410242408
g51
S'1239 2914 5603 34547'
p371
tp372
a(I1410271023
g54
S'1239'
p373
tp374
assS'66.185.128.1'
p375
g4
(g5
(g20
chistobgpstream
__dict__
g17
NN(dp376
tp377
Rp378
tp379
Rp380
S'95.128.184.0/22'
p381
(lp382
(I1410242408
g51
S'1668 3356 5603 34547'
p383
tp384
a(I1410271012
g54
S'1668 1239'
p385
tp386
assS'192.241.164.4'
p387
g4
(g5
(g20
chistobgpstream
__dict__
g17
NN(dp388
tp389
Rp390
tp391
Rp392
S'95.128.184.0/22'
p393
(lp394
(I1410242408
g51
S'62567 2914 5603 34547'
p395
tp396
a(I1410271009
g54
S'62567 1299 1239'
p397
tp398
assS'80.91.255.62'
p399
g4
(g5
(g20
chistobgpstream
__dict__
g17
NN(dp400
tp401
Rp402
tp403
Rp404
S'95.128.184.0/22'
p405
(lp406
(I1410242408
g51
S'1299 3356 5603 34547'
p407
tp408
a(I1410271008
g54
S'1299 1239'
p409
tp410
assS'203.62.252.186'
p411
g4
(g5
(g20
chistobgpstream
__dict__
g17
NN(dp412
tp413
Rp414
tp415
Rp416
S'95.128.184.0/22'
p417
(lp418
(I1410242408
g51
S'1221 4637 3356 5603 34547'
p419
tp420
assS'4.69.184.193'
p421
g4
(g5
(g20
chistobgpstream
__dict__
g17
NN(dp422
tp423
Rp424
tp425
Rp426
S'95.128.184.0/22'
p427
(lp428
(I1410242408
g51
S'3356 5603 34547'
p429
tp430
a(I1410271038
g54
S'3356 1239'
p431
tp432
a(I1410271208
g51
S'3356 5603 34547'
p433
tp434
a(I1410276695
g54
S'3356 1239'
p435
tp436
assS'162.243.188.2'
p437
g4
(g5
(g20
chistobgpstream
__dict__
g17
NN(dp438
tp439
Rp440
tp441
Rp442
S'95.128.184.0/22'
p443
(lp444
(I1410242408
g51
S'393406 1299 3356 5603 34547'
p445
tp446
a(I1410271009
g54
S'393406 1299 1239'
p447
tp448
assS'96.4.0.55'
p449
g4
(g5
(g20
chistobgpstream
__dict__
g17
NN(dp450
tp451
Rp452
tp453
Rp454
S'95.128.184.0/22'
p455
(lp456
(I1410242408
g51
S'11686 3356 5603 34547'
p457
tp458
assS'5.101.110.2'
p459
g4
(g5
(g20
chistobgpstream
__dict__
g17
NN(dp460
tp461
Rp462
tp463
Rp464
S'95.128.184.0/22'
p465
(lp466
(I1410242162
g54
S'202018 1299 3356 5603 34547'
p467
tp468
a(I1410271009
g54
S'202018 1299 1239'
p469
tp470
assS'216.221.157.162'
p471
g4
(g5
(g20
chistobgpstream
__dict__
g17
NN(dp472
tp473
Rp474
tp475
Rp476
S'95.128.184.0/22'
p477
(lp478
(I1410242408
g51
S'40191 6939 5603 34547'
p479
tp480
a(I1410271009
g54
S'40191 3257 1239'
p481
tp482
assS'85.114.0.217'
p483
g4
(g5
(g20
chistobgpstream
__dict__
g17
NN(dp484
tp485
Rp486
tp487
Rp488
S'95.128.184.0/22'
p489
(lp490
(I1410242408
g51
S'8492 9002 2914 5603 34547'
p491
tp492
a(I1410271019
g54
S'8492 20485 6453 1239'
p493
tp494
assS'12.0.1.63'
p495
g4
(g5
(g20
chistobgpstream
__dict__
g17
NN(dp496
tp497
Rp498
tp499
Rp500
S'95.128.184.0/22'
p501
(lp502
(I1410242408
g51
S'7018 2914 5603 34547'
p503
tp504
a(I1410271009
g54
S'7018 1239'
p505
tp506
assS'41.217.212.5'
p507
g4
(g5
(g20
chistobgpstream
__dict__
g17
NN(dp508
tp509
Rp510
tp511
Rp512
S'95.128.184.0/22'
p513
(lp514
(I1410242408
g51
S'37100 3356 5603 34547'
p515
tp516
a(I1410271018
g54
S'37100 6453 1239'
p517
tp518
assS'198.129.33.85'
p519
g4
(g5
(g20
chistobgpstream
__dict__
g17
NN(dp520
tp521
Rp522
tp523
Rp524
S'95.128.184.0/22'
p525
(lp526
(I1410242408
g51
S'293 2914 5603 34547'
p527
tp528
assS'168.209.255.56'
p529
g4
(g5
(g20
chistobgpstream
__dict__
g17
NN(dp530
tp531
Rp532
tp533
Rp534
S'95.128.184.0/22'
p535
(lp536
(I1410242408
g51
S'3741 3356 5603 34547'
p537
tp538
assS'213.144.128.203'
p539
g4
(g5
(g20
chistobgpstream
__dict__
g17
NN(dp540
tp541
Rp542
tp543
Rp544
S'95.128.184.0/22'
p545
(lp546
(I1410242408
g51
S'13030 5603 34547'
p547
tp548
a(I1410271009
g54
S'13030 1239'
p549
tp550
assS'206.24.210.80'
p551
g4
(g5
(g20
chistobgpstream
__dict__
g17
NN(dp552
tp553
Rp554
tp555
Rp556
S'95.128.184.0/22'
p557
(lp558
(I1410242408
g51
S'3561 3356 5603 34547'
p559
tp560
a(I1410271009
g54
S'3561 1239'
p561
tp562
assS'147.28.7.2'
p563
g4
(g5
(g20
chistobgpstream
__dict__
g17
NN(dp564
tp565
Rp566
tp567
Rp568
S'95.128.184.0/22'
p569
(lp570
(I1410242408
g51
S'3130 2914 5603 34547'
p571
tp572
a(I1410271037
g54
S'3130 1239'
p573
tp574
assS'147.28.7.1'
p575
g4
(g5
(g20
chistobgpstream
__dict__
g17
NN(dp576
tp577
Rp578
tp579
Rp580
S'95.128.184.0/22'
p581
(lp582
(I1410242408
g51
S'3130 2914 5603 34547'
p583
tp584
a(I1410271048
g54
S'3130 1239'
p585
tp586
assS'89.149.178.10'
p587
g4
(g5
(g20
chistobgpstream
__dict__
g17
NN(dp588
tp589
Rp590
tp591
Rp592
S'95.128.184.0/22'
p593
(lp594
(I1410242408
g51
S'3257 3356 5603 34547'
p595
tp596
a(I1410271012
g54
S'3257 1239'
p597
tp598
assS'134.222.87.1'
p599
g4
(g5
(g20
chistobgpstream
__dict__
g17
NN(dp600
tp601
Rp602
tp603
Rp604
S'95.128.184.0/22'
p605
(lp606
(I1410242408
g51
S'286 3356 5603 34547'
p607
tp608
a(I1410271009
g54
S'286 1239'
p609
tp610
assS'208.51.134.246'
p611
g4
(g5
(g20
chistobgpstream
__dict__
g17
NN(dp612
tp613
Rp614
tp615
Rp616
S'95.128.184.0/22'
p617
(lp618
(I1410242408
g51
S'3549 3356 5603 34547'
p619
tp620
a(I1410271009
g54
S'3549 1239'
p621
tp622
a(I1410271208
g51
S'3549 3356 5603 34547'
p623
tp624
assS'202.232.0.3'
p625
g4
(g5
(g20
chistobgpstream
__dict__
g17
NN(dp626
tp627
Rp628
tp629
Rp630
S'95.128.184.0/22'
p631
(lp632
(I1410242408
g51
S'2497 2914 5603 34547'
p633
tp634
a(I1410271021
g54
S'2497 1239'
p635
tp636
assS'216.218.252.164'
p637
g4
(g5
(g20
chistobgpstream
__dict__
g17
NN(dp638
tp639
Rp640
tp641
Rp642
S'95.128.184.0/22'
p643
(lp644
(I1410242408
g51
S'6939 5603 34547'
p645
tp646
a(I1410271009
g54
S'6939 1239'
p647
tp648
asssS'route-views.eqix'
p649
g4
(g5
(g26
chistobgpstream
__dict__
g17
NN(dp650
tp651
Rp652
tp653
Rp654
S'206.126.236.19'
p655
g4
(g5
(g20
chistobgpstream
__dict__
g17
NN(dp656
tp657
Rp658
tp659
Rp660
S'95.128.184.0/22'
p661
(lp662
(I1410242420
g51
S'3257 3356 5603 34547'
p663
tp664
a(I1410271007
g54
S'3257 1239'
p665
tp666
assS'206.126.236.172'
p667
g4
(g5
(g20
chistobgpstream
__dict__
g17
NN(dp668
tp669
Rp670
tp671
Rp672
S'95.128.184.0/22'
p673
(lp674
(I1410242420
g51
S'11039 6461 2914 5603 34547'
p675
tp676
assS'206.126.236.37'
p677
g4
(g5
(g20
chistobgpstream
__dict__
g17
NN(dp678
tp679
Rp680
tp681
Rp682
S'95.128.184.0/22'
p683
(lp684
(I1410242420
g51
S'6939 5603 34547'
p685
tp686
a(I1410271007
g54
S'6939 1239'
p687
tp688
assS'206.126.236.12'
p689
g4
(g5
(g20
chistobgpstream
__dict__
g17
NN(dp690
tp691
Rp692
tp693
Rp694
S'95.128.184.0/22'
p695
(lp696
(I1410242420
g51
S'2914 5603 34547'
p697
tp698
a(I1410271007
g54
S'2914 1239'
p699
tp700
a(I1410271220
g51
S'2914 5603 34547'
p701
tp702
assS'206.126.236.120'
p703
g4
(g5
(g20
chistobgpstream
__dict__
g17
NN(dp704
tp705
Rp706
tp707
Rp708
S'95.128.184.0/22'
p709
(lp710
(I1410242420
g51
S'41095 5603 34547'
p711
tp712
assS'206.126.236.10'
p713
g4
(g5
(g20
chistobgpstream
__dict__
g17
NN(dp714
tp715
Rp716
tp717
Rp718
S'95.128.184.0/22'
p719
(lp720
(I1410242420
g51
S'4589 2914 5603 34547'
p721
tp722
a(I1410271035
g54
S'4589 3257 1239'
p723
tp724
assS'206.126.236.47'
p725
g4
(g5
(g20
chistobgpstream
__dict__
g17
NN(dp726
tp727
Rp728
tp729
Rp730
S'95.128.184.0/22'
p731
(lp732
(I1410242420
g51
S'19151 174 34547 34547 34547 34547 34547 34547 34547 34547 34547 34547 34547'
p733
tp734
assS'206.126.236.154'
p735
g4
(g5
(g20
chistobgpstream
__dict__
g17
NN(dp736
tp737
Rp738
tp739
Rp740
S'95.128.184.0/22'
p741
(lp742
(I1410242420
g51
S'13618 3356 5603 34547'
p743
tp744
assS'206.126.236.26'
p745
g4
(g5
(g20
chistobgpstream
__dict__
g17
NN(dp746
tp747
Rp748
tp749
Rp750
S'95.128.184.0/22'
p751
(lp752
(I1410242420
g51
S'16559 6939 5603 34547'
p753
tp754
a(I1410271026
g54
S'16559 6939 1239'
p755
tp756
assS'206.126.236.24'
p757
g4
(g5
(g20
chistobgpstream
__dict__
g17
NN(dp758
tp759
Rp760
tp761
Rp762
S'95.128.184.0/22'
p763
(lp764
(I1410242420
g51
S'11666 3356 5603 34547'
p765
tp766
a(I1410271007
g54
S'11666 3257 1239'
p767
tp768
assS'206.126.236.25'
p769
g4
(g5
(g20
chistobgpstream
__dict__
g17
NN(dp770
tp771
Rp772
tp773
Rp774
S'95.128.184.0/22'
p775
(lp776
(I1410242420
g51
S'6079 2914 5603 34547'
p777
tp778
assS'206.126.236.181'
p779
g4
(g5
(g20
chistobgpstream
__dict__
g17
NN(dp780
tp781
Rp782
tp783
Rp784
S'95.128.184.0/22'
p785
(lp786
(I1410271034
S'withdrawal'
p787
g18
tp788
assS'206.126.236.76'
p789
g4
(g5
(g20
chistobgpstream
__dict__
g17
NN(dp790
tp791
Rp792
tp793
Rp794
S'95.128.184.0/22'
p795
(lp796
(I1410242420
g51
S'5769 6453 3356 5603 34547'
p797
tp798
a(I1410271034
g54
S'5769 1239'
p799
tp800
assS'206.126.236.60'
p801
g4
(g5
(g20
chistobgpstream
__dict__
g17
NN(dp802
tp803
Rp804
tp805
Rp806
S'95.128.184.0/22'
p807
(lp808
(I1410242420
g51
S'4436 2914 5603 34547'
p809
tp810
assS'206.126.236.61'
p811
g4
(g5
(g20
chistobgpstream
__dict__
g17
NN(dp812
tp813
Rp814
tp815
Rp816
S'95.128.184.0/22'
p817
(lp818
(I1410242420
g51
S'4436 2914 5603 34547'
p819
tp820
asssS'route-views.sydney'
p821
g4
(g5
(g26
chistobgpstream
__dict__
g17
NN(dp822
tp823
Rp824
tp825
Rp826
S'202.167.228.74'
p827
g4
(g5
(g20
chistobgpstream
__dict__
g17
NN(dp828
tp829
Rp830
tp831
Rp832
S'95.128.184.0/22'
p833
(lp834
(I1410242402
g51
S'4826 6939 5603 34547'
p835
tp836
a(I1410271041
g54
S'4826 6939 1239'
p837
tp838
assS'202.167.228.20'
p839
g4
(g5
(g20
chistobgpstream
__dict__
g17
NN(dp840
tp841
Rp842
tp843
Rp844
S'95.128.184.0/22'
p845
(lp846
(I1410242402
g51
S'4739 3356 5603 34547'
p847
tp848
a(I1410271036
g54
S'4739 1299 1239'
p849
tp850
a(I1410271044
g54
S'4739 1239'
p851
tp852
assS'202.167.228.44'
p853
g4
(g5
(g20
chistobgpstream
__dict__
g17
NN(dp854
tp855
Rp856
tp857
Rp858
S'95.128.184.0/22'
p859
(lp860
(I1410242402
g51
S'10026 3549 5603 34547'
p861
tp862
a(I1410268788
g54
S'10026 3356 5603 34547'
p863
tp864
a(I1410268822
g54
S'10026 3549 5603 34547'
p865
tp866
a(I1410271059
g54
S'10026 1239'
p867
tp868
assS'202.167.228.149'
p869
g4
(g5
(g20
chistobgpstream
__dict__
g17
NN(dp870
tp871
Rp872
tp873
Rp874
S'95.128.184.0/22'
p875
(lp876
(I1410242402
g51
S'58511 17819 2914 5603 34547'
p877
tp878
a(I1410271047
g54
S'58511 17819 4826 6939 1239'
p879
tp880
assS'202.167.228.37'
p881
g4
(g5
(g20
chistobgpstream
__dict__
g17
NN(dp882
tp883
Rp884
tp885
Rp886
S'95.128.184.0/22'
p887
(lp888
(I1410242402
g51
S'38809 2914 5603 34547'
p889
tp890
asssS'route-views4'
p891
g4
(g5
(g26
chistobgpstream
__dict__
g17
NN(dp892
tp893
Rp894
tp895
Rp896
S'103.247.3.29'
p897
g4
(g5
(g20
chistobgpstream
__dict__
g17
NN(dp898
tp899
Rp900
tp901
Rp902
S'95.128.184.0/22'
p903
(lp904
(I1410242405
g51
S'58511 2764 3356 5603 34547'
p905
tp906
assS'103.247.3.41'
p907
g4
(g5
(g20
chistobgpstream
__dict__
g17
NN(dp908
tp909
Rp910
tp911
Rp912
S'95.128.184.0/22'
p913
(lp914
(I1410242405
g51
S'58511 2764 3356 5603 34547'
p915
tp916
assS'103.247.3.8'
p917
g4
(g5
(g20
chistobgpstream
__dict__
g17
NN(dp918
tp919
Rp920
tp921
Rp922
S'95.128.184.0/22'
p923
(lp924
(I1410242405
g51
S'58511 2764 3356 5603 34547'
p925
tp926
assS'94.126.183.247'
p927
g4
(g5
(g20
chistobgpstream
__dict__
g17
NN(dp928
tp929
Rp930
tp931
Rp932
S'95.128.184.0/22'
p933
(lp934
(I1410242405
g51
S'59469 3356 5603 34547'
p935
tp936
a(I1410253358
g54
S'59469 1299 3356 5603 34547'
p937
tp938
a(I1410271007
g54
S'59469 1299 1239'
p939
tp940
assS'182.16.142.2'
p941
g4
(g5
(g20
chistobgpstream
__dict__
g17
NN(dp942
tp943
Rp944
tp945
Rp946
S'95.128.184.0/22'
p947
(lp948
(I1410242405
g51
S'10102 3356 5603 34547'
p949
tp950
a(I1410271035
g54
S'10102 6453 1239'
p951
tp952
assS'119.18.185.44'
p953
g4
(g5
(g20
chistobgpstream
__dict__
g17
NN(dp954
tp955
Rp956
tp957
Rp958
S'95.128.184.0/22'
p959
(lp960
(I1410242405
g51
S'38726 2914 5603 34547'
p961
tp962
a(I1410271007
g54
S'38726 6453 1239'
p963
tp964
assS'119.63.216.246'
p965
g4
(g5
(g20
chistobgpstream
__dict__
g17
NN(dp966
tp967
Rp968
tp969
Rp970
S'95.128.184.0/22'
p971
(lp972
(I1410242405
g51
S'38883 4826 6939 5603 34547'
p973
tp974
a(I1410271019
g54
S'38883 4739 1239'
p975
tp976
assS'203.175.175.15'
p977
g4
(g5
(g20
chistobgpstream
__dict__
g17
NN(dp978
tp979
Rp980
tp981
Rp982
S'95.128.184.0/22'
p983
(lp984
(I1410242405
g51
S'24482 6939 5603 34547'
p985
tp986
a(I1410271024
g54
S'24482 6939 1239'
p987
tp988
assS'213.248.80.244'
p989
g4
(g5
(g20
chistobgpstream
__dict__
g17
NN(dp990
tp991
Rp992
tp993
Rp994
S'95.128.184.0/22'
p995
(lp996
(I1410242405
g51
S'1299 3356 5603 34547'
p997
tp998
a(I1410271007
g54
S'1299 1239'
p999
tp1000
assS'199.87.240.1'
p1001
g4
(g5
(g20
chistobgpstream
__dict__
g17
NN(dp1002
tp1003
Rp1004
tp1005
Rp1006
S'95.128.184.0/22'
p1007
(lp1008
(I1410242405
g51
S'22873 6939 6939 5603 34547'
p1009
tp1010
a(I1410271035
g54
S'22873 6939 6939 1239'
p1011
tp1012
assS'64.25.208.71'
p1013
g4
(g5
(g20
chistobgpstream
__dict__
g17
NN(dp1014
tp1015
Rp1016
tp1017
Rp1018
S'95.128.184.0/22'
p1019
(lp1020
(I1410242405
g51
S'20225 6939 5603 34547'
p1021
tp1022
a(I1410271030
g54
S'20225 6939 1239'
p1023
tp1024
assS'212.66.71.4'
p1025
g4
(g5
(g20
chistobgpstream
__dict__
g17
NN(dp1026
tp1027
Rp1028
tp1029
Rp1030
S'95.128.184.0/22'
p1031
(lp1032
(I1410242405
g51
S'48526 2914 5603 34547'
p1033
tp1034
assS'194.71.0.1'
p1035
g4
(g5
(g20
chistobgpstream
__dict__
g17
NN(dp1036
tp1037
Rp1038
tp1039
Rp1040
S'95.128.184.0/22'
p1041
(lp1042
(I1410242405
g51
S'48285 42708 2914 5603 34547'
p1043
tp1044
assS'103.247.3.30'
p1045
g4
(g5
(g20
chistobgpstream
__dict__
g17
NN(dp1046
tp1047
Rp1048
tp1049
Rp1050
S'95.128.184.0/22'
p1051
(lp1052
(I1410242405
g51
S'58511 2764 3356 5603 34547'
p1053
tp1054
assS'185.5.200.255'
p1055
g4
(g5
(g20
chistobgpstream
__dict__
g17
NN(dp1056
tp1057
Rp1058
tp1059
Rp1060
S'95.128.184.0/22'
p1061
(lp1062
(I1410242405
g51
S'59715 3269 6762 2914 5603 34547'
p1063
tp1064
a(I1410271033
g54
S'59715 3269 6762 1239'
p1065
tp1066
assS'178.251.162.63'
p1067
g4
(g5
(g20
chistobgpstream
__dict__
g17
NN(dp1068
tp1069
Rp1070
tp1071
Rp1072
S'95.128.184.0/22'
p1073
(lp1074
(I1410242405
g51
S'197264 3356 5603 34547'
p1075
tp1076
a(I1410271028
g54
S'197264 8218 5511 1239'
p1077
tp1078
assS'192.92.236.0'
p1079
g4
(g5
(g20
chistobgpstream
__dict__
g17
NN(dp1080
tp1081
Rp1082
tp1083
Rp1084
S'95.128.184.0/22'
p1085
(lp1086
(I1410242405
g51
S'33031 3257 2914 5603 34547'
p1087
tp1088
a(I1410271007
g54
S'33031 3257 1239'
p1089
tp1090
assS'198.98.84.131'
p1091
g4
(g5
(g20
chistobgpstream
__dict__
g17
NN(dp1092
tp1093
Rp1094
tp1095
Rp1096
S'95.128.184.0/22'
p1097
(lp1098
(I1410242405
g51
S'19754 3356 5603 34547'
p1099
tp1100
a(I1410271007
g54
S'19754 6939 1239'
p1101
tp1102
assS'194.85.40.15'
p1103
g4
(g5
(g20
chistobgpstream
__dict__
g17
NN(dp1104
tp1105
Rp1106
tp1107
Rp1108
S'95.128.184.0/22'
p1109
(lp1110
(I1410242405
g51
S'3267 2603 1299 3356 5603 34547'
p1111
tp1112
a(I1410271028
g54
S'3267 2603 1299 1239'
p1113
tp1114
assS'133.205.1.142'
p1115
g4
(g5
(g20
chistobgpstream
__dict__
g17
NN(dp1116
tp1117
Rp1118
tp1119
Rp1120
S'95.128.184.0/22'
p1121
(lp1122
(I1410242405
g51
S'2518 2914 5603 34547'
p1123
tp1124
a(I1410271007
g54
S'2518 6453 1239'
p1125
tp1126
assS'111.91.233.1'
p1127
g4
(g5
(g20
chistobgpstream
__dict__
g17
NN(dp1128
tp1129
Rp1130
tp1131
Rp1132
S'95.128.184.0/22'
p1133
(lp1134
(I1410242405
g51
S'45896 3549 3356 5603 34547'
p1135
tp1136
assS'129.250.1.248'
p1137
g4
(g5
(g20
chistobgpstream
__dict__
g17
NN(dp1138
tp1139
Rp1140
tp1141
Rp1142
S'95.128.184.0/22'
p1143
(lp1144
(I1410242405
g51
S'2914 5603 34547'
p1145
tp1146
a(I1410271008
g54
S'2914 1239'
p1147
tp1148
a(I1410271204
g51
S'2914 5603 34547'
p1149
tp1150
assS'205.166.205.202'
p1151
g4
(g5
(g20
chistobgpstream
__dict__
g17
NN(dp1152
tp1153
Rp1154
tp1155
Rp1156
S'95.128.184.0/22'
p1157
(lp1158
(I1410242405
g51
S'6360 4323 3356 5603 34547'
p1159
tp1160
asssS'rrc11'
p1161
g4
(g5
(g26
chistobgpstream
__dict__
g17
NN(dp1162
tp1163
Rp1164
tp1165
Rp1166
S'198.32.160.96'
p1167
g4
(g5
(g20
chistobgpstream
__dict__
g17
NN(dp1168
tp1169
Rp1170
tp1171
Rp1172
S'95.128.184.0/22'
p1173
(lp1174
(I1410249601
g51
S'14361 174 34547 34547 34547 34547 34547 34547 34547 34547 34547 34547 34547'
p1175
tp1176
assS'198.32.160.137'
p1177
g4
(g5
(g20
chistobgpstream
__dict__
g17
NN(dp1178
tp1179
Rp1180
tp1181
Rp1182
S'95.128.184.0/22'
p1183
(lp1184
(I1410249601
g51
S'19151 174 34547 34547 34547 34547 34547 34547 34547 34547 34547 34547 34547'
p1185
tp1186
assS'198.32.160.42'
p1187
g4
(g5
(g20
chistobgpstream
__dict__
g17
NN(dp1188
tp1189
Rp1190
tp1191
Rp1192
S'95.128.184.0/22'
p1193
(lp1194
(I1410249601
g51
S'2497 2914 5603 34547'
p1195
tp1196
a(I1410271036
g54
S'2497 1239'
p1197
tp1198
assS'198.32.160.103'
p1199
g4
(g5
(g20
chistobgpstream
__dict__
g17
NN(dp1200
tp1201
Rp1202
tp1203
Rp1204
S'95.128.184.0/22'
p1205
(lp1206
(I1410249601
g51
S'13030 5603 34547'
p1207
tp1208
a(I1410271007
g54
S'13030 1239'
p1209
tp1210
assS'198.32.160.182'
p1211
g4
(g5
(g20
chistobgpstream
__dict__
g17
NN(dp1212
tp1213
Rp1214
tp1215
Rp1216
S'95.128.184.0/22'
p1217
(lp1218
(I1410249601
g51
S'9002 2914 5603 34547'
p1219
tp1220
asssS'rrc10'
p1221
g4
(g5
(g26
chistobgpstream
__dict__
g17
NN(dp1222
tp1223
Rp1224
tp1225
Rp1226
S'217.29.66.127'
p1227
g4
(g5
(g20
chistobgpstream
__dict__
g17
NN(dp1228
tp1229
Rp1230
tp1231
Rp1232
S'95.128.184.0/22'
p1233
(lp1234
(I1410249602
g51
S'49605 3269 6762 2914 5603 34547'
p1235
tp1236
a(I1410271048
g54
S'49605 3269 6762 1239'
p1237
tp1238
assS'217.29.66.120'
p1239
g4
(g5
(g20
chistobgpstream
__dict__
g17
NN(dp1240
tp1241
Rp1242
tp1243
Rp1244
S'95.128.184.0/22'
p1245
(lp1246
(I1410249602
g51
S'15605 12874 5603 34547'
p1247
tp1248
a(I1410271012
g54
S'15605 3257 1239'
p1249
tp1250
assS'217.29.66.4'
p1251
g4
(g5
(g20
chistobgpstream
__dict__
g17
NN(dp1252
tp1253
Rp1254
tp1255
Rp1256
S'95.128.184.0/22'
p1257
(lp1258
(I1410249602
g51
S'5396 3356 5603 34547'
p1259
tp1260
a(I1410271034
g54
S'5396 3257 1239'
p1261
tp1262
assS'217.29.66.102'
p1263
g4
(g5
(g20
chistobgpstream
__dict__
g17
NN(dp1264
tp1265
Rp1266
tp1267
Rp1268
S'95.128.184.0/22'
p1269
(lp1270
(I1410249602
g51
S'51185 3356 5603 34547'
p1271
tp1272
assS'217.29.66.65'
p1273
g4
(g5
(g20
chistobgpstream
__dict__
g17
NN(dp1274
tp1275
Rp1276
tp1277
Rp1278
S'95.128.184.0/22'
p1279
(lp1280
(I1410249602
g51
S'12779 174 34547 34547 34547 34547 34547 34547 34547 34547 34547 34547 34547'
p1281
tp1282
assS'217.29.66.86'
p1283
g4
(g5
(g20
chistobgpstream
__dict__
g17
NN(dp1284
tp1285
Rp1286
tp1287
Rp1288
S'95.128.184.0/22'
p1289
(lp1290
(I1410249602
g51
S'12637 174 34547 34547 34547 34547 34547 34547 34547 34547 34547 34547 34547'
p1291
tp1292
asssS'rrc13'
p1293
g4
(g5
(g26
chistobgpstream
__dict__
g17
NN(dp1294
tp1295
Rp1296
tp1297
Rp1298
S'193.232.244.111'
p1299
g4
(g5
(g20
chistobgpstream
__dict__
g17
NN(dp1300
tp1301
Rp1302
tp1303
Rp1304
S'95.128.184.0/22'
p1305
(lp1306
(I1410271043
g54
S'8331 12714 12714 1299 1239'
p1307
tp1308
assS'193.232.244.36'
p1309
g4
(g5
(g20
chistobgpstream
__dict__
g17
NN(dp1310
tp1311
Rp1312
tp1313
Rp1314
S'95.128.184.0/22'
p1315
(lp1316
(I1410271067
g54
S'2895 3267 1273 1273 1239'
p1317
tp1318
assS'193.232.244.130'
p1319
g4
(g5
(g20
chistobgpstream
__dict__
g17
NN(dp1320
tp1321
Rp1322
tp1323
Rp1324
S'95.128.184.0/22'
p1325
(lp1326
(I1410271007
g54
S'20632 31133 1299 1239'
p1327
tp1328
asssS'rrc12'
p1329
g4
(g5
(g26
chistobgpstream
__dict__
g17
NN(dp1330
tp1331
Rp1332
tp1333
Rp1334
S'80.81.192.30'
p1335
g4
(g5
(g20
chistobgpstream
__dict__
g17
NN(dp1336
tp1337
Rp1338
tp1339
Rp1340
S'95.128.184.0/22'
p1341
(lp1342
(I1410271007
g54
S'3257 1239'
p1343
tp1344
assS'80.81.194.140'
p1345
g4
(g5
(g20
chistobgpstream
__dict__
g17
NN(dp1346
tp1347
Rp1348
tp1349
Rp1350
S'95.128.184.0/22'
p1351
(lp1352
(I1410271007
g54
S'25220 1299 1239'
p1353
tp1354
assS'80.81.194.82'
p1355
g4
(g5
(g20
chistobgpstream
__dict__
g17
NN(dp1356
tp1357
Rp1358
tp1359
Rp1360
S'95.128.184.0/22'
p1361
(lp1362
(I1410271007
g54
S'8222 1299 1239'
p1363
tp1364
assS'80.81.194.119'
p1365
g4
(g5
(g20
chistobgpstream
__dict__
g17
NN(dp1366
tp1367
Rp1368
tp1369
Rp1370
S'95.128.184.0/22'
p1371
(lp1372
(I1410271013
g54
S'34288 6939 1239'
p1373
tp1374
assS'80.81.192.74'
p1375
g4
(g5
(g20
chistobgpstream
__dict__
g17
NN(dp1376
tp1377
Rp1378
tp1379
Rp1380
S'95.128.184.0/22'
p1381
(lp1382
(I1410271007
g54
S'13237 1299 1239'
p1383
tp1384
assS'80.81.192.175'
p1385
g4
(g5
(g20
chistobgpstream
__dict__
g17
NN(dp1386
tp1387
Rp1388
tp1389
Rp1390
S'95.128.184.0/22'
p1391
(lp1392
(I1410271027
g54
S'553 1299 1239'
p1393
tp1394
assS'80.81.192.133'
p1395
g4
(g5
(g20
chistobgpstream
__dict__
g17
NN(dp1396
tp1397
Rp1398
tp1399
Rp1400
S'95.128.184.0/22'
p1401
(lp1402
(I1410271007
g54
S'29686 3257 1239'
p1403
tp1404
assS'80.81.192.98'
p1405
g4
(g5
(g20
chistobgpstream
__dict__
g17
NN(dp1406
tp1407
Rp1408
tp1409
Rp1410
S'95.128.184.0/22'
p1411
(lp1412
(I1410271012
g54
S'9189 8422 1299 1239'
p1413
tp1414
assS'80.81.192.194'
p1415
g4
(g5
(g20
chistobgpstream
__dict__
g17
NN(dp1416
tp1417
Rp1418
tp1419
Rp1420
S'95.128.184.0/22'
p1421
(lp1422
(I1410271008
g54
S'6762 1239'
p1423
tp1424
assS'80.81.194.204'
p1425
g4
(g5
(g20
chistobgpstream
__dict__
g17
NN(dp1426
tp1427
Rp1428
tp1429
Rp1430
S'95.128.184.0/22'
p1431
(lp1432
(I1410271017
g54
S'48166 12389 3257 1239'
p1433
tp1434
assS'2001:7f8::bc26:0:1'
p1435
g4
(g5
(g20
chistobgpstream
__dict__
g17
NN(dp1436
tp1437
Rp1438
tp1439
Rp1440
S'95.128.184.0/22'
p1441
(lp1442
(I1410271017
g54
S'48166 12389 3257 1239'
p1443
tp1444
assS'80.81.194.59'
p1445
g4
(g5
(g20
chistobgpstream
__dict__
g17
NN(dp1446
tp1447
Rp1448
tp1449
Rp1450
S'95.128.184.0/22'
p1451
(lp1452
(I1410271007
g54
S'29140 3257 1239'
p1453
tp1454
assS'80.81.192.220'
p1455
g4
(g5
(g20
chistobgpstream
__dict__
g17
NN(dp1456
tp1457
Rp1458
tp1459
Rp1460
S'95.128.184.0/22'
p1461
(lp1462
(I1410271029
g54
S'19151 19895 3257 1239'
p1463
tp1464
assS'80.81.192.14'
p1465
g4
(g5
(g20
chistobgpstream
__dict__
g17
NN(dp1466
tp1467
Rp1468
tp1469
Rp1470
S'95.128.184.0/22'
p1471
(lp1472
(I1410271035
g54
S'4589 3257 1239'
p1473
tp1474
asssS'rrc15'
p1475
g4
(g5
(g26
chistobgpstream
__dict__
g17
NN(dp1476
tp1477
Rp1478
tp1479
Rp1480
S'187.16.216.219'
p1481
g4
(g5
(g20
chistobgpstream
__dict__
g17
NN(dp1482
tp1483
Rp1484
tp1485
Rp1486
S'95.128.184.0/22'
p1487
(lp1488
(I1410249595
g51
S'14840 26615 6762 2914 5603 34547'
p1489
tp1490
a(I1410271029
g54
S'14840 26615 6762 1239'
p1491
tp1492
assS'187.16.218.21'
p1493
g4
(g5
(g20
chistobgpstream
__dict__
g17
NN(dp1494
tp1495
Rp1496
tp1497
Rp1498
S'95.128.184.0/22'
p1499
(lp1500
(I1410249595
g51
S'52888 1916 3356 5603 34547'
p1501
tp1502
a(I1410271008
g54
S'52888 1251 20080 6762 1239'
p1503
tp1504
assS'187.16.216.4'
p1505
g4
(g5
(g20
chistobgpstream
__dict__
g17
NN(dp1506
tp1507
Rp1508
tp1509
Rp1510
S'95.128.184.0/22'
p1511
(lp1512
(I1410249595
g51
S'1916 3356 5603 34547'
p1513
tp1514
a(I1410271008
g54
S'1916 20080 6762 1239'
p1515
tp1516
assS'187.16.216.90'
p1517
g4
(g5
(g20
chistobgpstream
__dict__
g17
NN(dp1518
tp1519
Rp1520
tp1521
Rp1522
S'95.128.184.0/22'
p1523
(lp1524
(I1410249595
g51
S'28138 16735 3549 3356 5603 34547'
p1525
tp1526
a(I1410271019
g54
S'28138 16735 1239'
p1527
tp1528
assS'187.16.216.102'
p1529
g4
(g5
(g20
chistobgpstream
__dict__
g17
NN(dp1530
tp1531
Rp1532
tp1533
Rp1534
S'95.128.184.0/22'
p1535
(lp1536
(I1410249595
g51
S'53070 12989 6762 2914 5603 34547'
p1537
tp1538
a(I1410271026
g54
S'53070 12989 6762 1239'
p1539
tp1540
assS'187.16.216.75'
p1541
g4
(g5
(g20
chistobgpstream
__dict__
g17
NN(dp1542
tp1543
Rp1544
tp1545
Rp1546
S'95.128.184.0/22'
p1547
(lp1548
(I1410249595
g51
S'28220 12956 3356 5603 34547'
p1549
tp1550
a(I1410271007
g54
S'28220 12956 1239'
p1551
tp1552
assS'187.16.217.17'
p1553
g4
(g5
(g20
chistobgpstream
__dict__
g17
NN(dp1554
tp1555
Rp1556
tp1557
Rp1558
S'95.128.184.0/22'
p1559
(lp1560
(I1410249595
g51
S'22548 3549 3356 5603 34547'
p1561
tp1562
a(I1410271014
g54
S'22548 16735 1239'
p1563
tp1564
assS'2001:12f8::90'
p1565
g4
(g5
(g20
chistobgpstream
__dict__
g17
NN(dp1566
tp1567
Rp1568
tp1569
Rp1570
S'95.128.184.0/22'
p1571
(lp1572
(I1410249595
g51
S'28138 16735 3549 3356 5603 34547'
p1573
tp1574
a(I1410271019
g54
S'28138 16735 1239'
p1575
tp1576
asssS'rrc14'
p1577
g4
(g5
(g26
chistobgpstream
__dict__
g17
NN(dp1578
tp1579
Rp1580
tp1581
Rp1582
S'198.32.176.164'
p1583
g4
(g5
(g20
chistobgpstream
__dict__
g17
NN(dp1584
tp1585
Rp1586
tp1587
Rp1588
S'95.128.184.0/22'
p1589
(lp1590
(I1410249601
g51
S'19151 174 34547 34547 34547 34547 34547 34547 34547 34547 34547 34547 34547'
p1591
tp1592
assS'198.32.176.14'
p1593
g4
(g5
(g20
chistobgpstream
__dict__
g17
NN(dp1594
tp1595
Rp1596
tp1597
Rp1598
S'95.128.184.0/22'
p1599
(lp1600
(I1410249601
g51
S'2914 5603 34547'
p1601
tp1602
assS'198.32.176.70'
p1603
g4
(g5
(g20
chistobgpstream
__dict__
g17
NN(dp1604
tp1605
Rp1606
tp1607
Rp1608
S'95.128.184.0/22'
p1609
(lp1610
(I1410249601
g51
S'6762 2914 5603 34547'
p1611
tp1612
a(I1410271007
g54
S'6762 1239'
p1613
tp1614
assS'198.32.176.177'
p1615
g4
(g5
(g20
chistobgpstream
__dict__
g17
NN(dp1616
tp1617
Rp1618
tp1619
Rp1620
S'95.128.184.0/22'
p1621
(lp1622
(I1410249601
g51
S'7575 2914 5603 34547'
p1623
tp1624
assS'198.32.176.3'
p1625
g4
(g5
(g20
chistobgpstream
__dict__
g17
NN(dp1626
tp1627
Rp1628
tp1629
Rp1630
S'95.128.184.0/22'
p1631
(lp1632
(I1410249601
g51
S'1280 3356 5603 34547'
p1633
tp1634
assS'198.32.176.24'
p1635
g4
(g5
(g20
chistobgpstream
__dict__
g17
NN(dp1636
tp1637
Rp1638
tp1639
Rp1640
S'95.128.184.0/22'
p1641
(lp1642
(I1410249601
g51
S'2497 2914 5603 34547'
p1643
tp1644
a(I1410271068
g54
S'2497 1239'
p1645
tp1646
asssS'route-views.wide'
p1647
g4
(g5
(g26
chistobgpstream
__dict__
g17
NN(dp1648
tp1649
Rp1650
tp1651
Rp1652
S'202.249.2.169'
p1653
g4
(g5
(g20
chistobgpstream
__dict__
g17
NN(dp1654
tp1655
Rp1656
tp1657
Rp1658
S'95.128.184.0/22'
p1659
(lp1660
(I1410242401
g51
S'2497 2914 5603 34547'
p1661
tp1662
a(I1410271272
g54
S'2497 1239'
p1663
tp1664
assS'202.249.2.86'
p1665
g4
(g5
(g20
chistobgpstream
__dict__
g17
NN(dp1666
tp1667
Rp1668
tp1669
Rp1670
S'95.128.184.0/22'
p1671
(lp1672
(I1410242401
g51
S'7500 2497 2914 5603 34547'
p1673
tp1674
a(I1410271280
g54
S'7500 2497 1239'
p1675
tp1676
asssS'route-views.nwax'
p1677
g4
(g5
(g26
chistobgpstream
__dict__
g17
NN(dp1678
tp1679
Rp1680
tp1681
Rp1682
S'198.32.195.30'
p1683
g4
(g5
(g20
chistobgpstream
__dict__
g17
NN(dp1684
tp1685
Rp1686
tp1687
Rp1688
S'95.128.184.0/22'
p1689
(lp1690
(I1410242400
g51
S'6423 209 2914 5603 34547'
p1691
tp1692
a(I1410271015
g54
S'6423 209 1239'
p1693
tp1694
assS'198.32.195.46'
p1695
g4
(g5
(g20
chistobgpstream
__dict__
g17
NN(dp1696
tp1697
Rp1698
tp1699
Rp1700
S'95.128.184.0/22'
p1701
(lp1702
(I1410242400
g51
S'54073 7385 3356 5603 34547'
p1703
tp1704
a(I1410271007
g54
S'54073 2044 6939 1239'
p1705
tp1706
assS'198.32.195.23'
p1707
g4
(g5
(g20
chistobgpstream
__dict__
g17
NN(dp1708
tp1709
Rp1710
tp1711
Rp1712
S'95.128.184.0/22'
p1713
(lp1714
(I1410242400
g51
S'1798 7385 3356 5603 34547'
p1715
tp1716
a(I1410271033
g54
S'1798 7385 7922 1239'
p1717
tp1718
assS'198.32.195.24'
p1719
g4
(g5
(g20
chistobgpstream
__dict__
g17
NN(dp1720
tp1721
Rp1722
tp1723
Rp1724
S'95.128.184.0/22'
p1725
(lp1726
(I1410242400
g51
S'15301 6939 5603 34547'
p1727
tp1728
a(I1410271007
g54
S'15301 6939 1239'
p1729
tp1730
asssS'route-views.telxatl'
p1731
g4
(g5
(g26
chistobgpstream
__dict__
g17
NN(dp1732
tp1733
Rp1734
tp1735
Rp1736
S'198.32.132.97'
p1737
g4
(g5
(g20
chistobgpstream
__dict__
g17
NN(dp1738
tp1739
Rp1740
tp1741
Rp1742
S'95.128.184.0/22'
p1743
(lp1744
(I1410242402
g51
S'13703 6461 3356 5603 34547'
p1745
tp1746
a(I1410259410
g54
S'13703 3356 5603 34547'
p1747
tp1748
assS'198.32.132.28'
p1749
g4
(g5
(g20
chistobgpstream
__dict__
g17
NN(dp1750
tp1751
Rp1752
tp1753
Rp1754
S'95.128.184.0/22'
p1755
(lp1756
(I1410242402
g51
S'4181 3356 5603 34547'
p1757
tp1758
assS'198.32.132.175'
p1759
g4
(g5
(g20
chistobgpstream
__dict__
g17
NN(dp1760
tp1761
Rp1762
tp1763
Rp1764
S'95.128.184.0/22'
p1765
(lp1766
(I1410242402
g51
S'9002 2914 5603 34547'
p1767
tp1768
assS'198.32.132.114'
p1769
g4
(g5
(g20
chistobgpstream
__dict__
g17
NN(dp1770
tp1771
Rp1772
tp1773
Rp1774
S'95.128.184.0/22'
p1775
(lp1776
(I1410242402
g51
S'16700 6939 5603 34547'
p1777
tp1778
a(I1410271018
g54
S'16700 6939 1239'
p1779
tp1780
assS'198.32.132.75'
p1781
g4
(g5
(g20
chistobgpstream
__dict__
g17
NN(dp1782
tp1783
Rp1784
tp1785
Rp1786
S'95.128.184.0/22'
p1787
(lp1788
(I1410242402
g51
S'6939 5603 34547'
p1789
tp1790
a(I1410271007
g54
S'6939 1239'
p1791
tp1792
assS'198.32.132.186'
p1793
g4
(g5
(g20
chistobgpstream
__dict__
g17
NN(dp1794
tp1795
Rp1796
tp1797
Rp1798
S'95.128.184.0/22'
p1799
(lp1800
(I1410242402
g51
S'18786 4436 2914 5603 34547'
p1801
tp1802
a(I1410271008
g54
S'18786 3257 1239'
p1803
tp1804
asssS'route-views.linx'
p1805
g4
(g5
(g26
chistobgpstream
__dict__
g17
NN(dp1806
tp1807
Rp1808
tp1809
Rp1810
S'195.66.225.111'
p1811
g4
(g5
(g20
chistobgpstream
__dict__
g17
NN(dp1812
tp1813
Rp1814
tp1815
Rp1816
S'95.128.184.0/22'
p1817
(lp1818
(I1410242404
g51
S'5580 174 34547 34547 34547 34547 34547 34547 34547 34547 34547 34547 34547'
p1819
tp1820
assS'195.66.226.25'
p1821
g4
(g5
(g20
chistobgpstream
__dict__
g17
NN(dp1822
tp1823
Rp1824
tp1825
Rp1826
S'95.128.184.0/22'
p1827
(lp1828
(I1410242404
g51
S'202109 2914 5603 34547'
p1829
tp1830
a(I1410271007
g54
S'202109 1299 1239'
p1831
tp1832
assS'195.66.236.29'
p1833
g4
(g5
(g20
chistobgpstream
__dict__
g17
NN(dp1834
tp1835
Rp1836
tp1837
Rp1838
S'95.128.184.0/22'
p1839
(lp1840
(I1410242404
g51
S'5413 2914 5603 34547'
p1841
tp1842
assS'195.66.224.42'
p1843
g4
(g5
(g20
chistobgpstream
__dict__
g17
NN(dp1844
tp1845
Rp1846
tp1847
Rp1848
S'95.128.184.0/22'
p1849
(lp1850
(I1410242404
g51
S'8218 6461 2914 5603 34547'
p1851
tp1852
a(I1410271007
g54
S'8218 1299 1239'
p1853
tp1854
assS'195.66.236.175'
p1855
g4
(g5
(g20
chistobgpstream
__dict__
g17
NN(dp1856
tp1857
Rp1858
tp1859
Rp1860
S'95.128.184.0/22'
p1861
(lp1862
(I1410242404
g51
S'13030 5603 34547'
p1863
tp1864
a(I1410271007
g54
S'13030 1239'
p1865
tp1866
assS'195.66.224.66'
p1867
g4
(g5
(g20
chistobgpstream
__dict__
g17
NN(dp1868
tp1869
Rp1870
tp1871
Rp1872
S'95.128.184.0/22'
p1873
(lp1874
(I1410242404
g51
S'8426 3356 5603 34547'
p1875
tp1876
a(I1410271031
g54
S'8426 6453 1239'
p1877
tp1878
assS'195.66.224.29'
p1879
g4
(g5
(g20
chistobgpstream
__dict__
g17
NN(dp1880
tp1881
Rp1882
tp1883
Rp1884
S'95.128.184.0/22'
p1885
(lp1886
(I1410242404
g51
S'5413 2914 5603 34547'
p1887
tp1888
assS'195.66.225.76'
p1889
g4
(g5
(g20
chistobgpstream
__dict__
g17
NN(dp1890
tp1891
Rp1892
tp1893
Rp1894
S'95.128.184.0/22'
p1895
(lp1896
(I1410242404
g51
S'251 174 34547 34547 34547 34547 34547 34547 34547 34547 34547 34547 34547'
p1897
tp1898
a(I1410271007
g54
S'251 1239'
p1899
tp1900
assS'195.66.236.32'
p1901
g4
(g5
(g20
chistobgpstream
__dict__
g17
NN(dp1902
tp1903
Rp1904
tp1905
Rp1906
S'95.128.184.0/22'
p1907
(lp1908
(I1410242404
g51
S'3257 2914 5603 34547'
p1909
tp1910
a(I1410271007
g54
S'3257 1239'
p1911
tp1912
assS'195.66.224.21'
p1913
g4
(g5
(g20
chistobgpstream
__dict__
g17
NN(dp1914
tp1915
Rp1916
tp1917
Rp1918
S'95.128.184.0/22'
p1919
(lp1920
(I1410242404
g51
S'6939 5603 34547'
p1921
tp1922
a(I1410271007
g54
S'6939 1239'
p1923
tp1924
assS'195.66.238.25'
p1925
g4
(g5
(g20
chistobgpstream
__dict__
g17
NN(dp1926
tp1927
Rp1928
tp1929
Rp1930
S'95.128.184.0/22'
p1931
(lp1932
(I1410242404
g51
S'202109 2914 5603 34547'
p1933
tp1934
a(I1410271007
g54
S'202109 1299 1239'
p1935
tp1936
assS'195.66.225.86'
p1937
g4
(g5
(g20
chistobgpstream
__dict__
g17
NN(dp1938
tp1939
Rp1940
tp1941
Rp1942
S'95.128.184.0/22'
p1943
(lp1944
(I1410242404
g51
S'34288 6939 5603 34547'
p1945
tp1946
a(I1410271013
g54
S'34288 6939 1239'
p1947
tp1948
assS'195.66.224.118'
p1949
g4
(g5
(g20
chistobgpstream
__dict__
g17
NN(dp1950
tp1951
Rp1952
tp1953
Rp1954
S'95.128.184.0/22'
p1955
(lp1956
(I1410242404
g51
S'14537 3356 5603 34547'
p1957
tp1958
assS'195.66.226.74'
p1959
g4
(g5
(g20
chistobgpstream
__dict__
g17
NN(dp1960
tp1961
Rp1962
tp1963
Rp1964
S'95.128.184.0/22'
p1965
(lp1966
(I1410242404
g51
S'41695 2914 2914 2914 2914 2914 2914 5603 34547'
p1967
tp1968
a(I1410271020
g54
S'41695 6067 6067 6067 6067 6067 6067 286 1239'
p1969
tp1970
a(I1410271051
g54
S'41695 6067 6067 6067 6067 6067 6067 6453 1239'
p1971
tp1972
assS'195.66.224.114'
p1973
g4
(g5
(g20
chistobgpstream
__dict__
g17
NN(dp1974
tp1975
Rp1976
tp1977
Rp1978
S'95.128.184.0/22'
p1979
(lp1980
(I1410242404
g51
S'6667 3356 5603 34547'
p1981
tp1982
a(I1410271007
g54
S'6667 3257 1239'
p1983
tp1984
assS'195.66.224.153'
p1985
g4
(g5
(g20
chistobgpstream
__dict__
g17
NN(dp1986
tp1987
Rp1988
tp1989
Rp1990
S'95.128.184.0/22'
p1991
(lp1992
(I1410242404
g51
S'6762 2914 5603 34547'
p1993
tp1994
a(I1410271007
g54
S'6762 1239'
p1995
tp1996
assS'195.66.224.175'
p1997
g4
(g5
(g20
chistobgpstream
__dict__
g17
NN(dp1998
tp1999
Rp2000
tp2001
Rp2002
S'95.128.184.0/22'
p2003
(lp2004
(I1410242404
g51
S'13030 5603 34547'
p2005
tp2006
a(I1410271007
g54
S'13030 1239'
p2007
tp2008
assS'195.66.224.138'
p2009
g4
(g5
(g20
chistobgpstream
__dict__
g17
NN(dp2010
tp2011
Rp2012
tp2013
Rp2014
S'95.128.184.0/22'
p2015
(lp2016
(I1410242404
g51
S'2914 5603 34547'
p2017
tp2018
a(I1410271008
g54
S'2914 1239'
p2019
tp2020
a(I1410271205
g51
S'2914 5603 34547'
p2021
tp2022
assS'195.66.224.99'
p2023
g4
(g5
(g20
chistobgpstream
__dict__
g17
NN(dp2024
tp2025
Rp2026
tp2027
Rp2028
S'95.128.184.0/22'
p2029
(lp2030
(I1410242404
g51
S'13237 1299 3356 5603 34547'
p2031
tp2032
a(I1410271007
g54
S'13237 1299 1239'
p2033
tp2034
assS'195.66.236.35'
p2035
g4
(g5
(g20
chistobgpstream
__dict__
g17
NN(dp2036
tp2037
Rp2038
tp2039
Rp2040
S'95.128.184.0/22'
p2041
(lp2042
(I1410242404
g51
S'6067 3356 5603 34547'
p2043
tp2044
a(I1410271021
g54
S'6067 286 1239'
p2045
tp2046
a(I1410271051
g54
S'6067 6453 1239'
p2047
tp2048
assS'195.66.224.53'
p2049
g4
(g5
(g20
chistobgpstream
__dict__
g17
NN(dp2050
tp2051
Rp2052
tp2053
Rp2054
S'95.128.184.0/22'
p2055
(lp2056
(I1410242404
g51
S'8928 2914 5603 34547'
p2057
tp2058
a(I1410271007
g54
S'8928 3257 1239'
p2059
tp2060
assS'195.66.224.233'
p2061
g4
(g5
(g20
chistobgpstream
__dict__
g17
NN(dp2062
tp2063
Rp2064
tp2065
Rp2066
S'95.128.184.0/22'
p2067
(lp2068
(I1410242404
g51
S'19151 19895 3257 3356 5603 34547'
p2069
tp2070
a(I1410271033
g54
S'19151 19895 3257 1239'
p2071
tp2072
assS'195.66.224.51'
p2073
g4
(g5
(g20
chistobgpstream
__dict__
g17
NN(dp2074
tp2075
Rp2076
tp2077
Rp2078
S'95.128.184.0/22'
p2079
(lp2080
(I1410242404
g51
S'6453 2914 5603 34547'
p2081
tp2082
a(I1410271007
g54
S'6453 1239'
p2083
tp2084
assS'195.66.224.39'
p2085
g4
(g5
(g20
chistobgpstream
__dict__
g17
NN(dp2086
tp2087
Rp2088
tp2089
Rp2090
S'95.128.184.0/22'
p2091
(lp2092
(I1410242404
g51
S'3561 3356 5603 34547'
p2093
tp2094
a(I1410271008
g54
S'3561 1239'
p2095
tp2096
assS'195.66.224.35'
p2097
g4
(g5
(g20
chistobgpstream
__dict__
g17
NN(dp2098
tp2099
Rp2100
tp2101
Rp2102
S'95.128.184.0/22'
p2103
(lp2104
(I1410242404
g51
S'6067 3356 5603 34547'
p2105
tp2106
a(I1410271031
g54
S'6067 6453 1239'
p2107
tp2108
assS'195.66.224.32'
p2109
g4
(g5
(g20
chistobgpstream
__dict__
g17
NN(dp2110
tp2111
Rp2112
tp2113
Rp2114
S'95.128.184.0/22'
p2115
(lp2116
(I1410242404
g51
S'3257 3356 5603 34547'
p2117
tp2118
a(I1410271007
g54
S'3257 1239'
p2119
tp2120
assS'195.66.224.215'
p2121
g4
(g5
(g20
chistobgpstream
__dict__
g17
NN(dp2122
tp2123
Rp2124
tp2125
Rp2126
S'95.128.184.0/22'
p2127
(lp2128
(I1410242404
g51
S'31500 3356 5603 34547'
p2129
tp2130
a(I1410271020
g54
S'31500 1273 1239'
p2131
tp2132
asssS'route-views.saopaulo'
p2133
g4
(g5
(g26
chistobgpstream
__dict__
g17
NN(dp2134
tp2135
Rp2136
tp2137
Rp2138
S'187.16.217.207'
p2139
g4
(g5
(g20
chistobgpstream
__dict__
g17
NN(dp2140
tp2141
Rp2142
tp2143
Rp2144
S'95.128.184.0/22'
p2145
(lp2146
(I1410242404
g51
S'262476 18881 3549 3356 5603 34547'
p2147
tp2148
a(I1410271035
g54
S'262476 16735 1239'
p2149
tp2150
assS'187.16.218.52'
p2151
g4
(g5
(g20
chistobgpstream
__dict__
g17
NN(dp2152
tp2153
Rp2154
tp2155
Rp2156
S'95.128.184.0/22'
p2157
(lp2158
(I1410242404
g51
S'53237 3549 3356 5603 34547'
p2159
tp2160
a(I1410271039
g54
S'53237 12956 1239'
p2161
tp2162
assS'187.16.217.154'
p2163
g4
(g5
(g20
chistobgpstream
__dict__
g17
NN(dp2164
tp2165
Rp2166
tp2167
Rp2168
S'95.128.184.0/22'
p2169
(lp2170
(I1410242404
g51
S'53175 14840 18881 3549 3356 5603 34547'
p2171
tp2172
a(I1410268058
g54
S'53175 14840 26615 6762 2914 5603 34547'
p2173
tp2174
a(I1410271040
g54
S'53175 8167 7738 1239'
p2175
tp2176
assS'187.16.217.197'
p2177
g4
(g5
(g20
chistobgpstream
__dict__
g17
NN(dp2178
tp2179
Rp2180
tp2181
Rp2182
S'95.128.184.0/22'
p2183
(lp2184
(I1410242404
g51
S'263047 18881 3549 3356 5603 34547'
p2185
tp2186
assS'187.16.218.57'
p2187
g4
(g5
(g20
chistobgpstream
__dict__
g17
NN(dp2188
tp2189
Rp2190
tp2191
Rp2192
S'95.128.184.0/22'
p2193
(lp2194
(I1410242404
g51
S'28294 28168 262589 2914 5603 34547'
p2195
tp2196
a(I1410271008
g54
S'28294 16735 1239'
p2197
tp2198
assS'187.16.216.232'
p2199
g4
(g5
(g20
chistobgpstream
__dict__
g17
NN(dp2200
tp2201
Rp2202
tp2203
Rp2204
S'95.128.184.0/22'
p2205
(lp2206
(I1410242404
g51
S'28329 2914 5603 34547'
p2207
tp2208
assS'187.16.218.21'
p2209
g4
(g5
(g20
chistobgpstream
__dict__
g17
NN(dp2210
tp2211
Rp2212
tp2213
Rp2214
S'95.128.184.0/22'
p2215
(lp2216
(I1410242404
g51
S'52888 1916 3356 5603 34547'
p2217
tp2218
a(I1410271008
g54
S'52888 1251 20080 6762 1239'
p2219
tp2220
assS'187.16.217.129'
p2221
g4
(g5
(g20
chistobgpstream
__dict__
g17
NN(dp2222
tp2223
Rp2224
tp2225
Rp2226
S'95.128.184.0/22'
p2227
(lp2228
(I1410242404
g51
S'262354 262589 2914 5603 34547'
p2229
tp2230
assS'187.16.216.4'
p2231
g4
(g5
(g20
chistobgpstream
__dict__
g17
NN(dp2232
tp2233
Rp2234
tp2235
Rp2236
S'95.128.184.0/22'
p2237
(lp2238
(I1410242404
g51
S'1916 3356 5603 34547'
p2239
tp2240
a(I1410271008
g54
S'1916 20080 6762 1239'
p2241
tp2242
assS'187.16.219.82'
p2243
g4
(g5
(g20
chistobgpstream
__dict__
g17
NN(dp2244
tp2245
Rp2246
tp2247
Rp2248
S'95.128.184.0/22'
p2249
(lp2250
(I1410242404
g51
S'262394 28329 2914 5603 34547'
p2251
tp2252
a(I1410255388
g787
g18
tp2253
a(I1410256082
g54
S'262394 28329 2914 5603 34547'
p2254
tp2255
a(I1410271026
g54
S'262394 28329 6762 1239'
p2256
tp2257
a(I1410274052
g787
g18
tp2258
a(I1410274278
g54
S'262394 28329 6762 1239'
p2259
tp2260
assS'187.16.216.20'
p2261
g4
(g5
(g20
chistobgpstream
__dict__
g17
NN(dp2262
tp2263
Rp2264
tp2265
Rp2266
S'95.128.184.0/22'
p2267
(lp2268
(I1410242404
g51
S'28571 1916 3356 5603 34547'
p2269
tp2270
a(I1410271008
g54
S'28571 1916 20080 6762 1239'
p2271
tp2272
assS'187.16.219.92'
p2273
g4
(g5
(g20
chistobgpstream
__dict__
g17
NN(dp2274
tp2275
Rp2276
tp2277
Rp2278
S'95.128.184.0/22'
p2279
(lp2280
(I1410242404
g51
S'262620 3549 3356 5603 34547'
p2281
tp2282
assS'187.16.216.69'
p2283
g4
(g5
(g20
chistobgpstream
__dict__
g17
NN(dp2284
tp2285
Rp2286
tp2287
Rp2288
S'95.128.184.0/22'
p2289
(lp2290
(I1410242404
g51
S'28347 28168 262589 2914 5603 34547'
p2291
tp2292
assS'187.16.216.219'
p2293
g4
(g5
(g20
chistobgpstream
__dict__
g17
NN(dp2294
tp2295
Rp2296
tp2297
Rp2298
S'95.128.184.0/22'
p2299
(lp2300
(I1410242404
g51
S'14840 26615 6762 2914 5603 34547'
p2301
tp2302
a(I1410271029
g54
S'14840 26615 6762 1239'
p2303
tp2304
assS'187.16.217.104'
p2305
g4
(g5
(g20
chistobgpstream
__dict__
g17
NN(dp2306
tp2307
Rp2308
tp2309
Rp2310
S'95.128.184.0/22'
p2311
(lp2312
(I1410242404
g51
S'262757 4230 2914 5603 34547'
p2313
tp2314
a(I1410271029
g54
S'262757 16735 1239'
p2315
tp2316
assS'187.16.217.27'
p2317
g4
(g5
(g20
chistobgpstream
__dict__
g17
NN(dp2318
tp2319
Rp2320
tp2321
Rp2322
S'95.128.184.0/22'
p2323
(lp2324
(I1410242404
g51
S'28329 6762 2914 5603 34547'
p2325
tp2326
a(I1410271024
g54
S'28329 6762 1239'
p2327
tp2328
assS'187.16.216.68'
p2329
g4
(g5
(g20
chistobgpstream
__dict__
g17
NN(dp2330
tp2331
Rp2332
tp2333
Rp2334
S'95.128.184.0/22'
p2335
(lp2336
(I1410242404
g51
S'28347 28168 262589 2914 5603 34547'
p2337
tp2338
assS'187.16.218.121'
p2339
g4
(g5
(g20
chistobgpstream
__dict__
g17
NN(dp2340
tp2341
Rp2342
tp2343
Rp2344
S'95.128.184.0/22'
p2345
(lp2346
(I1410242404
g51
S'52720 28329 2914 5603 34547'
p2347
tp2348
a(I1410271039
g54
S'52720 28329 6762 1239'
p2349
tp2350
assS'187.16.216.90'
p2351
g4
(g5
(g20
chistobgpstream
__dict__
g17
NN(dp2352
tp2353
Rp2354
tp2355
Rp2356
S'95.128.184.0/22'
p2357
(lp2358
(I1410242404
g51
S'28138 16735 3549 3356 5603 34547'
p2359
tp2360
a(I1410271020
g54
S'28138 16735 1239'
p2361
tp2362
assS'187.16.217.14'
p2363
g4
(g5
(g20
chistobgpstream
__dict__
g17
NN(dp2364
tp2365
Rp2366
tp2367
Rp2368
S'95.128.184.0/22'
p2369
(lp2370
(I1410242404
g51
S'262750 3549 3356 5603 34547'
p2371
tp2372
a(I1410271034
g54
S'262750 6762 1239'
p2373
tp2374
asssS'route-views.isc'
p2375
g4
(g5
(g26
chistobgpstream
__dict__
g17
NN(dp2376
tp2377
Rp2378
tp2379
Rp2380
S'198.32.176.10'
p2381
g4
(g5
(g20
chistobgpstream
__dict__
g17
NN(dp2382
tp2383
Rp2384
tp2385
Rp2386
S'95.128.184.0/22'
p2387
(lp2388
(I1410242402
g51
S'14361 3257 3356 5603 34547'
p2389
tp2390
a(I1410271023
g54
S'14361 3257 1239'
p2391
tp2392
assS'198.32.176.13'
p2393
g4
(g5
(g20
chistobgpstream
__dict__
g17
NN(dp2394
tp2395
Rp2396
tp2397
Rp2398
S'95.128.184.0/22'
p2399
(lp2400
(I1410242402
g51
S'4436 2914 5603 34547'
p2401
tp2402
assS'198.32.176.164'
p2403
g4
(g5
(g20
chistobgpstream
__dict__
g17
NN(dp2404
tp2405
Rp2406
tp2407
Rp2408
S'95.128.184.0/22'
p2409
(lp2410
(I1410242402
g51
S'19151 174 34547 34547 34547 34547 34547 34547 34547 34547 34547 34547 34547'
p2411
tp2412
assS'198.32.176.14'
p2413
g4
(g5
(g20
chistobgpstream
__dict__
g17
NN(dp2414
tp2415
Rp2416
tp2417
Rp2418
S'95.128.184.0/22'
p2419
(lp2420
(I1410242402
g51
S'2914 5603 34547'
p2421
tp2422
a(I1410271008
g54
S'2914 1239'
p2423
tp2424
a(I1410271202
g51
S'2914 5603 34547'
p2425
tp2426
assS'198.32.176.207'
p2427
g4
(g5
(g20
chistobgpstream
__dict__
g17
NN(dp2428
tp2429
Rp2430
tp2431
Rp2432
S'95.128.184.0/22'
p2433
(lp2434
(I1410242402
g51
S'36351 2914 5603 34547'
p2435
tp2436
a(I1410271008
g54
S'36351 1299 1239'
p2437
tp2438
assS'198.32.176.206'
p2439
g4
(g5
(g20
chistobgpstream
__dict__
g17
NN(dp2440
tp2441
Rp2442
tp2443
Rp2444
S'95.128.184.0/22'
p2445
(lp2446
(I1410242402
g51
S'5580 174 34547 34547 34547 34547 34547 34547 34547 34547 34547 34547 34547'
p2447
tp2448
assS'198.32.176.95'
p2449
g4
(g5
(g20
chistobgpstream
__dict__
g17
NN(dp2450
tp2451
Rp2452
tp2453
Rp2454
S'95.128.184.0/22'
p2455
(lp2456
(I1410242402
g51
S'8218 6461 3356 5603 34547'
p2457
tp2458
a(I1410271008
g54
S'8218 1299 1239'
p2459
tp2460
assS'198.32.176.20'
p2461
g4
(g5
(g20
chistobgpstream
__dict__
g17
NN(dp2462
tp2463
Rp2464
tp2465
Rp2466
S'95.128.184.0/22'
p2467
(lp2468
(I1410242402
g51
S'6939 5603 34547'
p2469
tp2470
a(I1410271008
g54
S'6939 1239'
p2471
tp2472
assS'198.32.176.177'
p2473
g4
(g5
(g20
chistobgpstream
__dict__
g17
NN(dp2474
tp2475
Rp2476
tp2477
Rp2478
S'95.128.184.0/22'
p2479
(lp2480
(I1410242402
g51
S'7575 2914 5603 34547'
p2481
tp2482
assS'198.32.176.24'
p2483
g4
(g5
(g20
chistobgpstream
__dict__
g17
NN(dp2484
tp2485
Rp2486
tp2487
Rp2488
S'95.128.184.0/22'
p2489
(lp2490
(I1410242402
g51
S'2497 2914 5603 34547'
p2491
tp2492
a(I1410271068
g54
S'2497 1239'
p2493
tp2494
asssS'rrc03'
p2495
g4
(g5
(g26
chistobgpstream
__dict__
g17
NN(dp2496
tp2497
Rp2498
tp2499
Rp2500
S'195.69.144.200'
p2501
g4
(g5
(g20
chistobgpstream
__dict__
g17
NN(dp2502
tp2503
Rp2504
tp2505
Rp2506
S'95.128.184.0/22'
p2507
(lp2508
(I1410271008
g54
S'12859 3257 1239'
p2509
tp2510
assS'195.69.144.34'
p2511
g4
(g5
(g20
chistobgpstream
__dict__
g17
NN(dp2512
tp2513
Rp2514
tp2515
Rp2516
S'95.128.184.0/22'
p2517
(lp2518
(I1410271008
g54
S'1103 3257 1239'
p2519
tp2520
assS'195.69.145.167'
p2521
g4
(g5
(g20
chistobgpstream
__dict__
g17
NN(dp2522
tp2523
Rp2524
tp2525
Rp2526
S'95.128.184.0/22'
p2527
(lp2528
(I1410271008
g54
S'6453 1239'
p2529
tp2530
assS'195.69.144.149'
p2531
g4
(g5
(g20
chistobgpstream
__dict__
g17
NN(dp2532
tp2533
Rp2534
tp2535
Rp2536
S'95.128.184.0/22'
p2537
(lp2538
(I1410271010
g54
S'15435 286 1239'
p2539
tp2540
asssS'rrc00'
p2541
g4
(g5
(g26
chistobgpstream
__dict__
g17
NN(dp2542
tp2543
Rp2544
tp2545
Rp2546
S'202.12.28.1'
p2547
g4
(g5
(g20
chistobgpstream
__dict__
g17
NN(dp2548
tp2549
Rp2550
tp2551
Rp2552
S'95.128.184.0/22'
p2553
(lp2554
(I1410271046
g54
S'4777 2497 1239'
p2555
tp2556
assS'193.0.0.56'
p2557
g4
(g5
(g20
chistobgpstream
__dict__
g17
NN(dp2558
tp2559
Rp2560
tp2561
Rp2562
S'95.128.184.0/22'
p2563
(lp2564
(I1410271007
g54
S'3333 1257 1239'
p2565
tp2566
a(I1410271007
g54
S'3333 1299 1239'
p2567
tp2568
assS'193.160.39.1'
p2569
g4
(g5
(g20
chistobgpstream
__dict__
g17
NN(dp2570
tp2571
Rp2572
tp2573
Rp2574
S'95.128.184.0/22'
p2575
(lp2576
(I1410271014
g54
S'57821 48039 3257 1239'
p2577
tp2578
assS'193.150.22.1'
p2579
g4
(g5
(g20
chistobgpstream
__dict__
g17
NN(dp2580
tp2581
Rp2582
tp2583
Rp2584
S'95.128.184.0/22'
p2585
(lp2586
(I1410271042
g54
S'57381 50304 1299 1239'
p2587
tp2588
assS'68.67.63.245'
p2589
g4
(g5
(g20
chistobgpstream
__dict__
g17
NN(dp2590
tp2591
Rp2592
tp2593
Rp2594
S'95.128.184.0/22'
p2595
(lp2596
(I1410271014
g54
S'22652 6453 1239'
p2597
tp2598
assS'213.200.87.254'
p2599
g4
(g5
(g20
chistobgpstream
__dict__
g17
NN(dp2600
tp2601
Rp2602
tp2603
Rp2604
S'95.128.184.0/22'
p2605
(lp2606
(I1410271010
g54
S'3257 1239'
p2607
tp2608
assS'212.25.27.44'
p2609
g4
(g5
(g20
chistobgpstream
__dict__
g17
NN(dp2610
tp2611
Rp2612
tp2613
Rp2614
S'95.128.184.0/22'
p2615
(lp2616
(I1410271016
g54
S'8758 6830 1239'
p2617
tp2618
assS'195.47.235.100'
p2619
g4
(g5
(g20
chistobgpstream
__dict__
g17
NN(dp2620
tp2621
Rp2622
tp2623
Rp2624
S'95.128.184.0/22'
p2625
(lp2626
(I1410271021
g54
S'6881 15685 1299 1239'
p2627
tp2628
assS'12.0.1.63'
p2629
g4
(g5
(g20
chistobgpstream
__dict__
g17
NN(dp2630
tp2631
Rp2632
tp2633
Rp2634
S'95.128.184.0/22'
p2635
(lp2636
(I1410271007
g54
S'7018 1239'
p2637
tp2638
asssS'rrc01'
p2639
g4
(g5
(g26
chistobgpstream
__dict__
g17
NN(dp2640
tp2641
Rp2642
tp2643
Rp2644
S'195.66.224.111'
p2645
g4
(g5
(g20
chistobgpstream
__dict__
g17
NN(dp2646
tp2647
Rp2648
tp2649
Rp2650
S'95.128.184.0/22'
p2651
(lp2652
(I1410271018
g54
S'8607 3257 1239'
p2653
tp2654
assS'195.66.224.121'
p2655
g4
(g5
(g20
chistobgpstream
__dict__
g17
NN(dp2656
tp2657
Rp2658
tp2659
Rp2660
S'95.128.184.0/22'
p2661
(lp2662
(I1410271020
g54
S'8419 3257 1239'
p2663
tp2664
assS'195.66.226.20'
p2665
g4
(g5
(g20
chistobgpstream
__dict__
g17
NN(dp2666
tp2667
Rp2668
tp2669
Rp2670
S'95.128.184.0/22'
p2671
(lp2672
(I1410271007
g54
S'56730 51945 1299 1239'
p2673
tp2674
assS'195.66.224.175'
p2675
g4
(g5
(g20
chistobgpstream
__dict__
g17
NN(dp2676
tp2677
Rp2678
tp2679
Rp2680
S'95.128.184.0/22'
p2681
(lp2682
(I1410271007
g54
S'13030 1239'
p2683
tp2684
assS'195.66.224.54'
p2685
g4
(g5
(g20
chistobgpstream
__dict__
g17
NN(dp2686
tp2687
Rp2688
tp2689
Rp2690
S'95.128.184.0/22'
p2691
(lp2692
(I1410271007
g54
S'286 1239'
p2693
tp2694
assS'195.66.225.216'
p2695
g4
(g5
(g20
chistobgpstream
__dict__
g17
NN(dp2696
tp2697
Rp2698
tp2699
Rp2700
S'95.128.184.0/22'
p2701
(lp2702
(I1410271009
g54
S'25160 1299 1239'
p2703
tp2704
asssS'rrc06'
p2705
g4
(g5
(g26
chistobgpstream
__dict__
g17
NN(dp2706
tp2707
Rp2708
tp2709
Rp2710
S'202.249.2.185'
p2711
g4
(g5
(g20
chistobgpstream
__dict__
g17
NN(dp2712
tp2713
Rp2714
tp2715
Rp2716
S'95.128.184.0/22'
p2717
(lp2718
(I1410249601
g51
S'25152 6939 5603 34547'
p2719
tp2720
a(I1410271007
g54
S'25152 6939 1239'
p2721
tp2722
asssS'rrc07'
p2723
g4
(g5
(g26
chistobgpstream
__dict__
g17
NN(dp2724
tp2725
Rp2726
tp2727
Rp2728
S'194.68.123.157'
p2729
g4
(g5
(g20
chistobgpstream
__dict__
g17
NN(dp2730
tp2731
Rp2732
tp2733
Rp2734
S'95.128.184.0/22'
p2735
(lp2736
(I1410249600
g51
S'9002 2914 5603 34547'
p2737
tp2738
asssS'rrc04'
p2739
g4
(g5
(g26
chistobgpstream
__dict__
g17
NN(dp2740
tp2741
Rp2742
tp2743
Rp2744
S'192.65.185.142'
p2745
g4
(g5
(g20
chistobgpstream
__dict__
g17
NN(dp2746
tp2747
Rp2748
tp2749
Rp2750
S'95.128.184.0/22'
p2751
(lp2752
(I1410271020
g54
S'20932 1299 1239'
p2753
tp2754
assS'192.65.185.140'
p2755
g4
(g5
(g20
chistobgpstream
__dict__
g17
NN(dp2756
tp2757
Rp2758
tp2759
Rp2760
S'95.128.184.0/22'
p2761
(lp2762
(I1410271028
g54
S'29222 3303 1239'
p2763
tp2764
asssS'rrc05'
p2765
g4
(g5
(g26
chistobgpstream
__dict__
g17
NN(dp2766
tp2767
Rp2768
tp2769
Rp2770
S'193.203.0.1'
p2771
g4
(g5
(g20
chistobgpstream
__dict__
g17
NN(dp2772
tp2773
Rp2774
tp2775
Rp2776
S'95.128.184.0/22'
p2777
(lp2778
(I1410271033
g54
S'1853 1764 3257 1239'
p2779
tp2780
assS'193.203.0.63'
p2781
g4
(g5
(g20
chistobgpstream
__dict__
g17
NN(dp2782
tp2783
Rp2784
tp2785
Rp2786
S'95.128.184.0/22'
p2787
(lp2788
(I1410271012
g54
S'6720 1853 1764 3257 1239'
p2789
tp2790
a(I1410271042
g54
S'6720 8447 1299 1239'
p2791
tp2792
assS'193.203.0.130'
p2793
g4
(g5
(g20
chistobgpstream
__dict__
g17
NN(dp2794
tp2795
Rp2796
tp2797
Rp2798
S'95.128.184.0/22'
p2799
(lp2800
(I1410271034
g54
S'8596 286 1239'
p2801
tp2802
assS'193.203.0.157'
p2803
g4
(g5
(g20
chistobgpstream
__dict__
g17
NN(dp2804
tp2805
Rp2806
tp2807
Rp2808
S'95.128.184.0/22'
p2809
(lp2810
(I1410271053
g54
S'35369 8218 1299 1239'
p2811
tp2812
a(I1410271084
g54
S'35369 3330 3320 1239'
p2813
tp2814
assS'193.203.0.91'
p2815
g4
(g5
(g20
chistobgpstream
__dict__
g17
NN(dp2816
tp2817
Rp2818
tp2819
Rp2820
S'95.128.184.0/22'
p2821
(lp2822
(I1410271007
g54
S'13237 1299 1239'
p2823
tp2824
assS'193.203.0.21'
p2825
g4
(g5
(g20
chistobgpstream
__dict__
g17
NN(dp2826
tp2827
Rp2828
tp2829
Rp2830
S'95.128.184.0/22'
p2831
(lp2832
(I1410271007
g54
S'8447 1299 1239'
p2833
tp2834
asssS'route-views.sg'
p2835
g4
(g5
(g26
chistobgpstream
__dict__
g17
NN(dp2836
tp2837
Rp2838
tp2839
Rp2840
S'202.79.197.201'
p2841
g4
(g5
(g20
chistobgpstream
__dict__
g17
NN(dp2842
tp2843
Rp2844
tp2845
Rp2846
S'95.128.184.0/22'
p2847
(lp2848
(I1410242401
g51
S'133165 3491 2914 5603 34547'
p2849
tp2850
a(I1410271031
g54
S'133165 3491 1239'
p2851
tp2852
assS'202.79.197.159'
p2853
g4
(g5
(g20
chistobgpstream
__dict__
g17
NN(dp2854
tp2855
Rp2856
tp2857
Rp2858
S'95.128.184.0/22'
p2859
(lp2860
(I1410242401
g51
S'24482 6939 5603 34547'
p2861
tp2862
a(I1410271007
g54
S'24482 6453 1239'
p2863
tp2864
a(I1410271007
g54
S'24482 6939 1239'
p2865
tp2866
assssS'title'
p2867
S'sprint_1'
p2868
sS'start_time'
p2869
S'2014-09-09T13:45:00'
p2870
sS'no'
p2871
S'19'
p2872
sS'detail'
p2873
S'moas'
p2874
sS'global_paths'
p2875
(dp2876
g49
(lp2877
((lp2878
S'3561'
p2879
aS'1239'
p2880
a(lp2881
F0.00466621969711996
aF0.0222977210891845
atp2882
a((lp2883
S'209'
p2884
aS'2914'
p2885
aS'5603'
p2886
aS'34547'
p2887
a(lp2888
F0.0505723582129628
aF0.0720832081876625
aF0.000422540607267003
aF1.30543733710548e-05
atp2889
a((lp2890
S'2914'
p2891
aS'5603'
p2892
aS'34547'
p2893
a(lp2894
F0.0720832081876625
aF0.000422540607267003
aF1.30543733710548e-05
atp2895
a((lp2896
S'6423'
p2897
aS'209'
p2898
aS'1239'
p2899
a(lp2900
F3.59665972464924e-05
aF0.0505723582129628
aF0.0222977210891845
atp2901
a((lp2902
S'4181'
p2903
aS'3356'
p2904
aS'5603'
p2905
aS'34547'
p2906
a(lp2907
F0.000382168230350355
aF0.124241148669113
aF0.000422540607267003
aF1.30543733710548e-05
atp2908
a((lp2909
S'53175'
p2910
aS'14840'
p2911
aS'26615'
p2912
aS'6762'
p2913
aS'2914'
p2914
aS'5603'
p2915
aS'34547'
p2916
a(lp2917
F3.19555606880366e-06
aF5.97927149159832e-05
aF0.00405845849994945
aF0.0210920859090755
aF0.0720832081876625
aF0.000422540607267003
aF1.30543733710548e-05
atp2918
a((lp2919
S'13618'
p2920
aS'3356'
p2921
aS'5603'
p2922
aS'34547'
p2923
a(lp2924
F2.80168336275416e-05
aF0.124241148669113
aF0.000422540607267003
aF1.30543733710548e-05
atp2925
a((lp2926
S'15301'
p2927
aS'6939'
p2928
aS'5603'
p2929
aS'34547'
p2930
a(lp2931
F5.02350083840223e-07
aF0.0421958066707987
aF0.000422540607267003
aF1.30543733710548e-05
atp2932
a((lp2933
S'20225'
p2934
aS'6939'
p2935
aS'1239'
p2936
a(lp2937
F3.17939450814459e-05
aF0.0421958066707987
aF0.0222977210891845
atp2938
a((lp2939
S'10026'
p2940
aS'3356'
p2941
aS'5603'
p2942
aS'34547'
p2943
a(lp2944
F0.00826451332049983
aF0.124241148669113
aF0.000422540607267003
aF1.30543733710548e-05
atp2945
a((lp2946
S'8607'
p2947
aS'3257'
p2948
aS'1239'
p2949
a(lp2950
F7.30462274539785e-05
aF0.0481010147606434
aF0.0222977210891845
atp2951
a((lp2952
S'15301'
p2953
aS'6939'
p2954
aS'1239'
p2955
a(lp2956
F5.02350083840223e-07
aF0.0421958066707987
aF0.0222977210891845
atp2957
a((lp2958
S'263047'
p2959
aS'18881'
p2960
aS'3549'
p2961
aS'3356'
p2962
aS'5603'
p2963
aS'34547'
p2964
a(lp2965
F6.30705354318009e-06
aF0.00211088234497429
aF0.014567957506214
aF0.124241148669113
aF0.000422540607267003
aF1.30543733710548e-05
atp2966
a((lp2967
S'58511'
p2968
aS'17819'
p2969
aS'2914'
p2970
aS'5603'
p2971
aS'34547'
p2972
a(lp2973
F3.68143564127997e-06
aF0.000143036171483873
aF0.0720832081876625
aF0.000422540607267003
aF1.30543733710548e-05
atp2974
a((lp2975
S'8222'
p2976
aS'1299'
p2977
aS'1239'
p2978
a(lp2979
F3.10065029434555e-06
aF0.0660545619843227
aF0.0222977210891845
atp2980
a((lp2981
S'4777'
p2982
aS'2497'
p2983
aS'1239'
p2984
a(lp2985
F1.30141630635138e-07
aF0.00393360140903633
aF0.0222977210891845
atp2986
a((lp2987
S'29140'
p2988
aS'3257'
p2989
aS'1239'
p2990
a(lp2991
F1.50379109120172e-06
aF0.0481010147606434
aF0.0222977210891845
atp2992
a((lp2993
S'53175'
p2994
aS'14840'
p2995
aS'18881'
p2996
aS'3549'
p2997
aS'3356'
p2998
aS'5603'
p2999
aS'34547'
p3000
a(lp3001
F3.19555606880366e-06
aF5.97927149159832e-05
aF0.00211088234497429
aF0.014567957506214
aF0.124241148669113
aF0.000422540607267003
aF1.30543733710548e-05
atp3002
a((lp3003
S'19754'
p3004
aS'6939'
p3005
aS'1239'
p3006
a(lp3007
F4.603995891604e-06
aF0.0421958066707987
aF0.0222977210891845
atp3008
a((lp3009
S'6539'
p3010
aS'577'
p3011
aS'2914'
p3012
aS'5603'
p3013
aS'34547'
p3014
a(lp3015
F0.000123657169287342
aF0.00268382629332163
aF0.0720832081876625
aF0.000422540607267003
aF1.30543733710548e-05
atp3016
a((lp3017
S'5413'
p3018
aS'2914'
p3019
aS'5603'
p3020
aS'34547'
p3021
a(lp3022
F0.000302444127144314
aF0.0720832081876625
aF0.000422540607267003
aF1.30543733710548e-05
atp3023
a((lp3024
S'6762'
p3025
aS'2914'
p3026
aS'5603'
p3027
aS'34547'
p3028
a(lp3029
F0.0210920859090755
aF0.0720832081876625
aF0.000422540607267003
aF1.30543733710548e-05
atp3030
a((lp3031
S'4589'
p3032
aS'2914'
p3033
aS'5603'
p3034
aS'34547'
p3035
a(lp3036
F0.00107037034316002
aF0.0720832081876625
aF0.000422540607267003
aF1.30543733710548e-05
atp3037
a((lp3038
S'52888'
p3039
aS'1251'
p3040
aS'20080'
p3041
aS'6762'
p3042
aS'1239'
p3043
a(lp3044
F9.02274654721034e-06
aF0.000167350725181924
aF0.000462712747623425
aF0.0210920859090755
aF0.0222977210891845
atp3045
a((lp3046
S'13237'
p3047
aS'1299'
p3048
aS'3356'
p3049
aS'5603'
p3050
aS'34547'
p3051
a(lp3052
F0.00092229221822097
aF0.0660545619843227
aF0.124241148669113
aF0.000422540607267003
aF1.30543733710548e-05
atp3053
a((lp3054
S'6453'
p3055
aS'1239'
p3056
a(lp3057
F0.0393720257829483
aF0.0222977210891845
atp3058
a((lp3059
S'53070'
p3060
aS'12989'
p3061
aS'6762'
p3062
aS'1239'
p3063
a(lp3064
F4.04269746974594e-06
aF0.000606386302760993
aF0.0210920859090755
aF0.0222977210891845
atp3065
a((lp3066
S'200130'
p3067
aS'2914'
p3068
aS'5603'
p3069
aS'34547'
p3070
a(lp3071
F2.74487794461132e-05
aF0.0720832081876625
aF0.000422540607267003
aF1.30543733710548e-05
atp3072
a((lp3073
S'8426'
p3074
aS'3356'
p3075
aS'5603'
p3076
aS'34547'
p3077
a(lp3078
F0.000396143806866401
aF0.124241148669113
aF0.000422540607267003
aF1.30543733710548e-05
atp3079
a((lp3080
S'28138'
p3081
aS'16735'
p3082
aS'1239'
p3083
a(lp3084
F1.50334559725845e-06
aF0.000862179944635994
aF0.0222977210891845
atp3085
a((lp3086
S'6881'
p3087
aS'15685'
p3088
aS'1299'
p3089
aS'1239'
p3090
a(lp3091
F1.03914959099143e-06
aF7.17490674004472e-05
aF0.0660545619843227
aF0.0222977210891845
atp3092
a((lp3093
S'53237'
p3094
aS'12956'
p3095
aS'1239'
p3096
a(lp3097
F9.84033509584041e-05
aF0.0217063937922367
aF0.0222977210891845
atp3098
a((lp3099
S'24482'
p3100
aS'6939'
p3101
aS'5603'
p3102
aS'34547'
p3103
a(lp3104
F5.74007533403129e-06
aF0.0421958066707987
aF0.000422540607267003
aF1.30543733710548e-05
atp3105
a((lp3106
S'7500'
p3107
aS'2497'
p3108
aS'2914'
p3109
aS'5603'
p3110
aS'34547'
p3111
a(lp3112
F2.82094007125876e-07
aF0.00393360140903633
aF0.0720832081876625
aF0.000422540607267003
aF1.30543733710548e-05
atp3113
a((lp3114
S'8419'
p3115
aS'3257'
p3116
aS'1239'
p3117
a(lp3118
F2.06749756622573e-05
aF0.0481010147606434
aF0.0222977210891845
atp3119
a((lp3120
S'57381'
p3121
aS'50304'
p3122
aS'1299'
p3123
aS'1239'
p3124
a(lp3125
F1.87983604545802e-07
aF3.7826316631885e-05
aF0.0660545619843227
aF0.0222977210891845
atp3126
a((lp3127
S'7660'
p3128
aS'2516'
p3129
aS'3356'
p3130
aS'5603'
p3131
aS'34547'
p3132
a(lp3133
F1.01470461968005e-05
aF0.0100248576852491
aF0.124241148669113
aF0.000422540607267003
aF1.30543733710548e-05
atp3134
a((lp3135
S'25220'
p3136
aS'1299'
p3137
aS'1239'
p3138
a(lp3139
F1.22582802247925e-05
aF0.0660545619843227
aF0.0222977210891845
atp3140
a((lp3141
S'5650'
p3142
aS'2914'
p3143
aS'5603'
p3144
aS'34547'
p3145
a(lp3146
F0.00217363442605189
aF0.0720832081876625
aF0.000422540607267003
aF1.30543733710548e-05
atp3147
a((lp3148
S'202018'
p3149
aS'1299'
p3150
aS'3356'
p3151
aS'5603'
p3152
aS'34547'
p3153
a(lp3154
F6.11035092100843e-06
aF0.0660545619843227
aF0.124241148669113
aF0.000422540607267003
aF1.30543733710548e-05
atp3155
a((lp3156
S'262757'
p3157
aS'4230'
p3158
aS'2914'
p3159
aS'5603'
p3160
aS'34547'
p3161
a(lp3162
F3.0066911945169e-06
aF0.00658516283171005
aF0.0720832081876625
aF0.000422540607267003
aF1.30543733710548e-05
atp3163
a((lp3164
S'4826'
p3165
aS'6939'
p3166
aS'5603'
p3167
aS'34547'
p3168
a(lp3169
F0.00123910427528066
aF0.0421958066707987
aF0.000422540607267003
aF1.30543733710548e-05
atp3170
a((lp3171
S'553'
p3172
aS'1299'
p3173
aS'1239'
p3174
a(lp3175
F0.000896391488198885
aF0.0660545619843227
aF0.0222977210891845
atp3176
a((lp3177
S'25152'
p3178
aS'6939'
p3179
aS'1239'
p3180
a(lp3181
F6.57908602400754e-07
aF0.0421958066707987
aF0.0222977210891845
atp3182
a((lp3183
S'6667'
p3184
aS'3356'
p3185
aS'5603'
p3186
aS'34547'
p3187
a(lp3188
F0.00156550456282372
aF0.124241148669113
aF0.000422540607267003
aF1.30543733710548e-05
atp3189
a((lp3190
S'25160'
p3191
aS'1299'
p3192
aS'1239'
p3193
a(lp3194
F2.63163440960302e-06
aF0.0660545619843227
aF0.0222977210891845
atp3195
a((lp3196
S'4589'
p3197
aS'3257'
p3198
aS'1239'
p3199
a(lp3200
F0.00107037034316002
aF0.0481010147606434
aF0.0222977210891845
atp3201
a((lp3202
S'133165'
p3203
aS'3491'
p3204
aS'2914'
p3205
aS'5603'
p3206
aS'34547'
p3207
a(lp3208
F1.24062765024142e-05
aF0.014842222995339
aF0.0720832081876625
aF0.000422540607267003
aF1.30543733710548e-05
atp3209
a((lp3210
S'12637'
p3211
aS'174'
p3212
aS'34547'
p3213
a(lp3214
F2.99169042217448e-05
aF0.0772177589423483
aF1.30543733710548e-05
atp3215
a((lp3216
S'3292'
p3217
aS'1239'
p3218
a(lp3219
F0.00406605686626923
aF0.0222977210891845
atp3220
a((lp3221
S'13030'
p3222
aS'5603'
p3223
aS'34547'
p3224
a(lp3225
F0.000620201007387603
aF0.000422540607267003
aF1.30543733710548e-05
atp3226
a((lp3227
S'3561'
p3228
aS'3356'
p3229
aS'5603'
p3230
aS'34547'
p3231
a(lp3232
F0.00466621969711996
aF0.124241148669113
aF0.000422540607267003
aF1.30543733710548e-05
atp3233
a((lp3234
S'31500'
p3235
aS'1273'
p3236
aS'1239'
p3237
a(lp3238
F7.9200290690797e-05
aF0.00939518679731309
aF0.0222977210891845
atp3239
a((lp3240
S'3257'
p3241
aS'2914'
p3242
aS'5603'
p3243
aS'34547'
p3244
a(lp3245
F0.0481010147606434
aF0.0720832081876625
aF0.000422540607267003
aF1.30543733710548e-05
atp3246
a((lp3247
S'53070'
p3248
aS'12989'
p3249
aS'6762'
p3250
aS'2914'
p3251
aS'5603'
p3252
aS'34547'
p3253
a(lp3254
F4.04269746974594e-06
aF0.000606386302760993
aF0.0210920859090755
aF0.0720832081876625
aF0.000422540607267003
aF1.30543733710548e-05
atp3255
a((lp3256
S'8447'
p3257
aS'1299'
p3258
aS'1239'
p3259
a(lp3260
F0.00147506584247968
aF0.0660545619843227
aF0.0222977210891845
atp3261
a((lp3262
S'59715'
p3263
aS'3269'
p3264
aS'6762'
p3265
aS'2914'
p3266
aS'5603'
p3267
aS'34547'
p3268
a(lp3269
F3.75947772800431e-07
aF0.00773310557146753
aF0.0210920859090755
aF0.0720832081876625
aF0.000422540607267003
aF1.30543733710548e-05
atp3270
a((lp3271
S'1299'
p3272
aS'3356'
p3273
aS'5603'
p3274
aS'34547'
p3275
a(lp3276
F0.0660545619843227
aF0.124241148669113
aF0.000422540607267003
aF1.30543733710548e-05
atp3277
a((lp3278
S'10026'
p3279
aS'3549'
p3280
aS'5603'
p3281
aS'34547'
p3282
a(lp3283
F0.00826451332049983
aF0.014567957506214
aF0.000422540607267003
aF1.30543733710548e-05
atp3284
a((lp3285
S'5396'
p3286
aS'3257'
p3287
aS'1239'
p3288
a(lp3289
F4.66440407691519e-05
aF0.0481010147606434
aF0.0222977210891845
atp3290
a((lp3291
S'3257'
p3292
aS'3356'
p3293
aS'5603'
p3294
aS'34547'
p3295
a(lp3296
F0.0481010147606434
aF0.124241148669113
aF0.000422540607267003
aF1.30543733710548e-05
atp3297
a((lp3298
S'3356'
p3299
aS'5603'
p3300
aS'34547'
p3301
a(lp3302
F0.124241148669113
aF0.000422540607267003
aF1.30543733710548e-05
atp3303
a((lp3304
S'62567'
p3305
aS'1299'
p3306
aS'1239'
p3307
a(lp3308
F4.67197735075794e-05
aF0.0660545619843227
aF0.0222977210891845
atp3309
a((lp3310
S'5769'
p3311
aS'1239'
p3312
a(lp3313
F0.000973214941955741
aF0.0222977210891845
atp3314
a((lp3315
S'9189'
p3316
aS'8422'
p3317
aS'1299'
p3318
aS'1239'
p3319
a(lp3320
F1.92299632076253e-05
aF0.00026427464358109
aF0.0660545619843227
aF0.0222977210891845
atp3321
a((lp3322
S'6939'
p3323
aS'1239'
p3324
a(lp3325
F0.0421958066707987
aF0.0222977210891845
atp3326
a((lp3327
S'6360'
p3328
aS'4323'
p3329
aS'3356'
p3330
aS'5603'
p3331
aS'34547'
p3332
a(lp3333
F9.12169983751592e-05
aF0.00558648905688684
aF0.124241148669113
aF0.000422540607267003
aF1.30543733710548e-05
atp3334
a((lp3335
S'3257'
p3336
aS'1239'
p3337
a(lp3338
F0.0481010147606434
aF0.0222977210891845
atp3339
a((lp3340
S'2497'
p3341
aS'1239'
p3342
a(lp3343
F0.00393360140903633
aF0.0222977210891845
atp3344
a((lp3345
S'15605'
p3346
aS'12874'
p3347
aS'5603'
p3348
aS'34547'
p3349
a(lp3350
F3.28976681952629e-06
aF0.00158099379558334
aF0.000422540607267003
aF1.30543733710548e-05
atp3351
a((lp3352
S'286'
p3353
aS'1239'
p3354
a(lp3355
F0.00520655795826339
aF0.0222977210891845
atp3356
a((lp3357
S'7500'
p3358
aS'2497'
p3359
aS'1239'
p3360
a(lp3361
F2.82094007125876e-07
aF0.00393360140903633
aF0.0222977210891845
atp3362
a((lp3363
S'59715'
p3364
aS'3269'
p3365
aS'6762'
p3366
aS'1239'
p3367
a(lp3368
F3.75947772800431e-07
aF0.00773310557146753
aF0.0210920859090755
aF0.0222977210891845
atp3369
a((lp3370
S'22548'
p3371
aS'16735'
p3372
aS'1239'
p3373
a(lp3374
F2.40530384292483e-06
aF0.000862179944635994
aF0.0222977210891845
atp3375
a((lp3376
S'52720'
p3377
aS'28329'
p3378
aS'2914'
p3379
aS'5603'
p3380
aS'34547'
p3381
a(lp3382
F1.14536375547942e-05
aF6.6143792293351e-05
aF0.0720832081876625
aF0.000422540607267003
aF1.30543733710548e-05
atp3383
a((lp3384
S'3741'
p3385
aS'3356'
p3386
aS'5603'
p3387
aS'34547'
p3388
a(lp3389
F0.0016335517439212
aF0.124241148669113
aF0.000422540607267003
aF1.30543733710548e-05
atp3390
a((lp3391
S'133165'
p3392
aS'3491'
p3393
aS'1239'
p3394
a(lp3395
F1.24062765024142e-05
aF0.014842222995339
aF0.0222977210891845
atp3396
a((lp3397
S'10102'
p3398
aS'6453'
p3399
aS'1239'
p3400
a(lp3401
F1.87938336828419e-05
aF0.0393720257829483
aF0.0222977210891845
atp3402
a((lp3403
S'701'
p3404
aS'2914'
p3405
aS'5603'
p3406
aS'34547'
p3407
a(lp3408
F0.0308906065190054
aF0.0720832081876625
aF0.000422540607267003
aF1.30543733710548e-05
atp3409
a((lp3410
S'11666'
p3411
aS'3257'
p3412
aS'1239'
p3413
a(lp3414
F6.06110955594495e-05
aF0.0481010147606434
aF0.0222977210891845
atp3415
a((lp3416
S'28571'
p3417
aS'1916'
p3418
aS'3356'
p3419
aS'5603'
p3420
aS'34547'
p3421
a(lp3422
F3.81586989392437e-05
aF0.000773578018597953
aF0.124241148669113
aF0.000422540607267003
aF1.30543733710548e-05
atp3423
a((lp3424
S'8426'
p3425
aS'6453'
p3426
aS'1239'
p3427
a(lp3428
F0.000396143806866401
aF0.0393720257829483
aF0.0222977210891845
atp3429
a((lp3430
S'24482'
p3431
aS'6939'
p3432
aS'1239'
p3433
a(lp3434
F5.74007533403129e-06
aF0.0421958066707987
aF0.0222977210891845
atp3435
a((lp3436
S'13030'
p3437
aS'1239'
p3438
a(lp3439
F0.000620201007387603
aF0.0222977210891845
atp3440
a((lp3441
S'54073'
p3442
aS'7385'
p3443
aS'3356'
p3444
aS'5603'
p3445
aS'34547'
p3446
a(lp3447
F9.39869432001077e-08
aF0.00147484259386917
aF0.124241148669113
aF0.000422540607267003
aF1.30543733710548e-05
atp3448
a((lp3449
S'16559'
p3450
aS'6939'
p3451
aS'5603'
p3452
aS'34547'
p3453
a(lp3454
F8.44281937259553e-06
aF0.0421958066707987
aF0.000422540607267003
aF1.30543733710548e-05
atp3455
a((lp3456
S'28329'
p3457
aS'2914'
p3458
aS'5603'
p3459
aS'34547'
p3460
a(lp3461
F6.6143792293351e-05
aF0.0720832081876625
aF0.000422540607267003
aF1.30543733710548e-05
atp3462
a((lp3463
S'53237'
p3464
aS'3549'
p3465
aS'3356'
p3466
aS'5603'
p3467
aS'34547'
p3468
a(lp3469
F9.84033509584041e-05
aF0.014567957506214
aF0.124241148669113
aF0.000422540607267003
aF1.30543733710548e-05
atp3470
a((lp3471
S'8928'
p3472
aS'2914'
p3473
aS'5603'
p3474
aS'34547'
p3475
a(lp3476
F0.00225720918989075
aF0.0720832081876625
aF0.000422540607267003
aF1.30543733710548e-05
atp3477
a((lp3478
S'58511'
p3479
aS'17819'
p3480
aS'4826'
p3481
aS'6939'
p3482
aS'1239'
p3483
a(lp3484
F3.68143564127997e-06
aF0.000143036171483873
aF0.00123910427528066
aF0.0421958066707987
aF0.0222977210891845
atp3485
a((lp3486
S'262476'
p3487
aS'16735'
p3488
aS'1239'
p3489
a(lp3490
F1.64729162109845e-05
aF0.000862179944635994
aF0.0222977210891845
atp3491
a((lp3492
S'29686'
p3493
aS'3257'
p3494
aS'1239'
p3495
a(lp3496
F2.39058852017767e-05
aF0.0481010147606434
aF0.0222977210891845
atp3497
a((lp3498
S'197264'
p3499
aS'8218'
p3500
aS'5511'
p3501
aS'1239'
p3502
a(lp3503
F2.64460185177113e-06
aF0.000795175585071411
aF0.0165309076769178
aF0.0222977210891845
atp3504
a((lp3505
S'7660'
p3506
aS'2516'
p3507
aS'209'
p3508
aS'1239'
p3509
a(lp3510
F1.01470461968005e-05
aF0.0100248576852491
aF0.0505723582129628
aF0.0222977210891845
atp3511
a((lp3512
S'11039'
p3513
aS'6461'
p3514
aS'2914'
p3515
aS'5603'
p3516
aS'34547'
p3517
a(lp3518
F4.81213149184551e-05
aF0.00699346336271489
aF0.0720832081876625
aF0.000422540607267003
aF1.30543733710548e-05
atp3519
a((lp3520
S'852'
p3521
aS'174'
p3522
aS'34547'
p3523
a(lp3524
F0.00301384816647412
aF0.0772177589423483
aF1.30543733710548e-05
atp3525
a((lp3526
S'25152'
p3527
aS'6939'
p3528
aS'5603'
p3529
aS'34547'
p3530
a(lp3531
F6.57908602400754e-07
aF0.0421958066707987
aF0.000422540607267003
aF1.30543733710548e-05
atp3532
a((lp3533
S'393406'
p3534
aS'1299'
p3535
aS'3356'
p3536
aS'5603'
p3537
aS'34547'
p3538
a(lp3539
F6.20415978696724e-06
aF0.0660545619843227
aF0.124241148669113
aF0.000422540607267003
aF1.30543733710548e-05
atp3540
a((lp3541
S'14361'
p3542
aS'3257'
p3543
aS'3356'
p3544
aS'5603'
p3545
aS'34547'
p3546
a(lp3547
F6.2459670177168e-05
aF0.0481010147606434
aF0.124241148669113
aF0.000422540607267003
aF1.30543733710548e-05
atp3548
a((lp3549
S'4739'
p3550
aS'3356'
p3551
aS'5603'
p3552
aS'34547'
p3553
a(lp3554
F0.000939410508060609
aF0.124241148669113
aF0.000422540607267003
aF1.30543733710548e-05
atp3555
a((lp3556
S'262757'
p3557
aS'16735'
p3558
aS'1239'
p3559
a(lp3560
F3.0066911945169e-06
aF0.000862179944635994
aF0.0222977210891845
atp3561
a((lp3562
g373
a(lp3563
F0.0222977210891845
atp3564
a((lp3565
S'1239'
p3566
aS'2914'
p3567
aS'5603'
p3568
aS'34547'
p3569
a(lp3570
F0.0222977210891845
aF0.0720832081876625
aF0.000422540607267003
aF1.30543733710548e-05
atp3571
a((lp3572
S'202109'
p3573
aS'2914'
p3574
aS'5603'
p3575
aS'34547'
p3576
a(lp3577
F6.11027392921054e-06
aF0.0720832081876625
aF0.000422540607267003
aF1.30543733710548e-05
atp3578
a((lp3579
S'28571'
p3580
aS'1916'
p3581
aS'20080'
p3582
aS'6762'
p3583
aS'1239'
p3584
a(lp3585
F3.81586989392437e-05
aF0.000773578018597953
aF0.000462712747623425
aF0.0210920859090755
aF0.0222977210891845
atp3586
a((lp3587
S'262476'
p3588
aS'18881'
p3589
aS'3549'
p3590
aS'3356'
p3591
aS'5603'
p3592
aS'34547'
p3593
a(lp3594
F1.64729162109845e-05
aF0.00211088234497429
aF0.014567957506214
aF0.124241148669113
aF0.000422540607267003
aF1.30543733710548e-05
atp3595
a((lp3596
S'22652'
p3597
aS'3356'
p3598
aS'5603'
p3599
aS'34547'
p3600
a(lp3601
F4.42200725921563e-05
aF0.124241148669113
aF0.000422540607267003
aF1.30543733710548e-05
atp3602
a((lp3603
S'24482'
p3604
aS'6453'
p3605
aS'1239'
p3606
a(lp3607
F5.74007533403129e-06
aF0.0393720257829483
aF0.0222977210891845
atp3608
a((lp3609
S'41695'
p3610
aS'6067'
p3611
aS'286'
p3612
aS'1239'
p3613
a(lp3614
F3.76031835709e-06
aF1.76813269055943e-05
aF0.00520655795826339
aF0.0222977210891845
atp3615
a((lp3616
S'3130'
p3617
aS'1239'
p3618
a(lp3619
F3.0359881249417e-05
aF0.0222977210891845
atp3620
a((lp3621
S'8218'
p3622
aS'1299'
p3623
aS'1239'
p3624
a(lp3625
F0.000795175585071411
aF0.0660545619843227
aF0.0222977210891845
atp3626
a((lp3627
S'6720'
p3628
aS'8447'
p3629
aS'1299'
p3630
aS'1239'
p3631
a(lp3632
F2.55644485504293e-05
aF0.00147506584247968
aF0.0660545619843227
aF0.0222977210891845
atp3633
a((lp3634
S'1798'
p3635
aS'7385'
p3636
aS'3356'
p3637
aS'5603'
p3638
aS'34547'
p3639
a(lp3640
F8.07347842088925e-05
aF0.00147484259386917
aF0.124241148669113
aF0.000422540607267003
aF1.30543733710548e-05
atp3641
a((lp3642
S'3333'
p3643
aS'1257'
p3644
aS'1239'
p3645
a(lp3646
F2.44405576223921e-06
aF0.00269863030060019
aF0.0222977210891845
atp3647
a((lp3648
S'3267'
p3649
aS'2603'
p3650
aS'1299'
p3651
aS'1239'
p3652
a(lp3653
F0.000323234780868066
aF0.00178428588907878
aF0.0660545619843227
aF0.0222977210891845
atp3654
a((lp3655
S'31500'
p3656
aS'3356'
p3657
aS'5603'
p3658
aS'34547'
p3659
a(lp3660
F7.9200290690797e-05
aF0.124241148669113
aF0.000422540607267003
aF1.30543733710548e-05
atp3661
a((lp3662
S'8596'
p3663
aS'286'
p3664
aS'1239'
p3665
a(lp3666
F4.27730528851889e-06
aF0.00520655795826339
aF0.0222977210891845
atp3667
a((lp3668
S'7018'
p3669
aS'1239'
p3670
a(lp3671
F0.0569766296392941
aF0.0222977210891845
atp3672
a((lp3673
S'197264'
p3674
aS'3356'
p3675
aS'5603'
p3676
aS'34547'
p3677
a(lp3678
F2.64460185177113e-06
aF0.124241148669113
aF0.000422540607267003
aF1.30543733710548e-05
atp3679
a((lp3680
S'3292'
p3681
aS'3356'
p3682
aS'5603'
p3683
aS'34547'
p3684
a(lp3685
F0.00406605686626923
aF0.124241148669113
aF0.000422540607267003
aF1.30543733710548e-05
atp3686
a((lp3687
S'38726'
p3688
aS'2914'
p3689
aS'5603'
p3690
aS'34547'
p3691
a(lp3692
F1.71974744839158e-05
aF0.0720832081876625
aF0.000422540607267003
aF1.30543733710548e-05
atp3693
a((lp3694
S'1103'
p3695
aS'3257'
p3696
aS'1239'
p3697
a(lp3698
F0.00408136201804176
aF0.0481010147606434
aF0.0222977210891845
atp3699
a((lp3700
S'33031'
p3701
aS'3257'
p3702
aS'2914'
p3703
aS'5603'
p3704
aS'34547'
p3705
a(lp3706
F1.95998596978663e-05
aF0.0481010147606434
aF0.0720832081876625
aF0.000422540607267003
aF1.30543733710548e-05
atp3707
a((lp3708
S'20632'
p3709
aS'31133'
p3710
aS'1299'
p3711
aS'1239'
p3712
a(lp3713
F0.000116390479419687
aF0.0017058342935415
aF0.0660545619843227
aF0.0222977210891845
atp3714
a((lp3715
S'10026'
p3716
aS'3257'
p3717
aS'1239'
p3718
a(lp3719
F0.00826451332049983
aF0.0481010147606434
aF0.0222977210891845
atp3720
a((lp3721
S'10102'
p3722
aS'3356'
p3723
aS'5603'
p3724
aS'34547'
p3725
a(lp3726
F1.87938336828419e-05
aF0.124241148669113
aF0.000422540607267003
aF1.30543733710548e-05
atp3727
a((lp3728
S'1798'
p3729
aS'7385'
p3730
aS'7922'
p3731
aS'1239'
p3732
a(lp3733
F8.07347842088925e-05
aF0.00147484259386917
aF0.0274114033167258
aF0.0222977210891845
atp3734
a((lp3735
S'41695'
p3736
aS'6067'
p3737
aS'6453'
p3738
aS'1239'
p3739
a(lp3740
F3.76031835709e-06
aF1.76813269055943e-05
aF0.0393720257829483
aF0.0222977210891845
atp3741
a((lp3742
S'1853'
p3743
aS'1764'
p3744
aS'3257'
p3745
aS'1239'
p3746
a(lp3747
F0.000555575148375815
aF0.00033494284028512
aF0.0481010147606434
aF0.0222977210891845
atp3748
a((lp3749
S'28329'
p3750
aS'6762'
p3751
aS'1239'
p3752
a(lp3753
F6.6143792293351e-05
aF0.0210920859090755
aF0.0222977210891845
atp3754
a((lp3755
S'45896'
p3756
aS'3549'
p3757
aS'3356'
p3758
aS'5603'
p3759
aS'34547'
p3760
a(lp3761
F0.000124082375149812
aF0.014567957506214
aF0.124241148669113
aF0.000422540607267003
aF1.30543733710548e-05
atp3762
a((lp3763
S'6939'
p3764
aS'5603'
p3765
aS'34547'
p3766
a(lp3767
F0.0421958066707987
aF0.000422540607267003
aF1.30543733710548e-05
atp3768
a((lp3769
S'6762'
p3770
aS'3356'
p3771
aS'5603'
p3772
aS'34547'
p3773
a(lp3774
F0.0210920859090755
aF0.124241148669113
aF0.000422540607267003
aF1.30543733710548e-05
atp3775
a((lp3776
S'16700'
p3777
aS'6939'
p3778
aS'5603'
p3779
aS'34547'
p3780
a(lp3781
F1.0432550695212e-05
aF0.0421958066707987
aF0.000422540607267003
aF1.30543733710548e-05
atp3782
a((lp3783
S'1221'
p3784
aS'4637'
p3785
aS'3356'
p3786
aS'5603'
p3787
aS'34547'
p3788
a(lp3789
F0.00591405869349436
aF0.00679667321340684
aF0.124241148669113
aF0.000422540607267003
aF1.30543733710548e-05
atp3790
a((lp3791
S'36351'
p3792
aS'1299'
p3793
aS'1239'
p3794
a(lp3795
F0.00111109054379448
aF0.0660545619843227
aF0.0222977210891845
atp3796
a((lp3797
S'52888'
p3798
aS'1916'
p3799
aS'3356'
p3800
aS'5603'
p3801
aS'34547'
p3802
a(lp3803
F9.02274654721034e-06
aF0.000773578018597953
aF0.124241148669113
aF0.000422540607267003
aF1.30543733710548e-05
atp3804
a((lp3805
S'59469'
p3806
aS'3356'
p3807
aS'5603'
p3808
aS'34547'
p3809
a(lp3810
F5.05902750576747e-06
aF0.124241148669113
aF0.000422540607267003
aF1.30543733710548e-05
atp3811
a((lp3812
S'22652'
p3813
aS'6453'
p3814
aS'1239'
p3815
a(lp3816
F4.42200725921563e-05
aF0.0393720257829483
aF0.0222977210891845
atp3817
a((lp3818
S'8928'
p3819
aS'3257'
p3820
aS'1239'
p3821
a(lp3822
F0.00225720918989075
aF0.0481010147606434
aF0.0222977210891845
atp3823
a((lp3824
S'28329'
p3825
aS'6762'
p3826
aS'2914'
p3827
aS'5603'
p3828
aS'34547'
p3829
a(lp3830
F6.6143792293351e-05
aF0.0210920859090755
aF0.0720832081876625
aF0.000422540607267003
aF1.30543733710548e-05
atp3831
a((lp3832
S'3356'
p3833
aS'1239'
p3834
a(lp3835
F0.124241148669113
aF0.0222977210891845
atp3836
a((lp3837
S'286'
p3838
aS'3356'
p3839
aS'5603'
p3840
aS'34547'
p3841
a(lp3842
F0.00520655795826339
aF0.124241148669113
aF0.000422540607267003
aF1.30543733710548e-05
atp3843
a((lp3844
S'293'
p3845
aS'2914'
p3846
aS'5603'
p3847
aS'34547'
p3848
a(lp3849
F0.000908086272481136
aF0.0720832081876625
aF0.000422540607267003
aF1.30543733710548e-05
atp3850
a((lp3851
S'11686'
p3852
aS'3356'
p3853
aS'5603'
p3854
aS'34547'
p3855
a(lp3856
F0.000162706422909095
aF0.124241148669113
aF0.000422540607267003
aF1.30543733710548e-05
atp3857
a((lp3858
S'40387'
p3859
aS'7018'
p3860
aS'3356'
p3861
aS'5603'
p3862
aS'34547'
p3863
a(lp3864
F0.000123891449830277
aF0.0569766296392941
aF0.124241148669113
aF0.000422540607267003
aF1.30543733710548e-05
atp3865
a((lp3866
S'701'
p3867
aS'1239'
p3868
a(lp3869
F0.0308906065190054
aF0.0222977210891845
atp3870
a((lp3871
S'20225'
p3872
aS'6939'
p3873
aS'5603'
p3874
aS'34547'
p3875
a(lp3876
F3.17939450814459e-05
aF0.0421958066707987
aF0.000422540607267003
aF1.30543733710548e-05
atp3877
a((lp3878
S'3303'
p3879
aS'2914'
p3880
aS'5603'
p3881
aS'34547'
p3882
a(lp3883
F0.00184768125761815
aF0.0720832081876625
aF0.000422540607267003
aF1.30543733710548e-05
atp3884
a((lp3885
S'14840'
p3886
aS'26615'
p3887
aS'6762'
p3888
aS'2914'
p3889
aS'5603'
p3890
aS'34547'
p3891
a(lp3892
F5.97927149159832e-05
aF0.00405845849994945
aF0.0210920859090755
aF0.0720832081876625
aF0.000422540607267003
aF1.30543733710548e-05
atp3893
a((lp3894
S'2914'
p3895
aS'1239'
p3896
a(lp3897
F0.0720832081876625
aF0.0222977210891845
atp3898
a((lp3899
S'3333'
p3900
aS'1299'
p3901
aS'1239'
p3902
a(lp3903
F2.44405576223921e-06
aF0.0660545619843227
aF0.0222977210891845
atp3904
a((lp3905
S'262394'
p3906
aS'28329'
p3907
aS'2914'
p3908
aS'5603'
p3909
aS'34547'
p3910
a(lp3911
F3.35712392458895e-06
aF6.6143792293351e-05
aF0.0720832081876625
aF0.000422540607267003
aF1.30543733710548e-05
atp3912
a((lp3913
S'6067'
p3914
aS'3356'
p3915
aS'5603'
p3916
aS'34547'
p3917
a(lp3918
F1.76813269055943e-05
aF0.124241148669113
aF0.000422540607267003
aF1.30543733710548e-05
atp3919
a((lp3920
S'49605'
p3921
aS'3269'
p3922
aS'6762'
p3923
aS'2914'
p3924
aS'5603'
p3925
aS'34547'
p3926
a(lp3927
F1.03690694060576e-05
aF0.00773310557146753
aF0.0210920859090755
aF0.0720832081876625
aF0.000422540607267003
aF1.30543733710548e-05
atp3928
a((lp3929
S'3130'
p3930
aS'2914'
p3931
aS'5603'
p3932
aS'34547'
p3933
a(lp3934
F3.0359881249417e-05
aF0.0720832081876625
aF0.000422540607267003
aF1.30543733710548e-05
atp3935
a((lp3936
S'62567'
p3937
aS'2914'
p3938
aS'5603'
p3939
aS'34547'
p3940
a(lp3941
F4.67197735075794e-05
aF0.0720832081876625
aF0.000422540607267003
aF1.30543733710548e-05
atp3942
a((lp3943
S'57821'
p3944
aS'48039'
p3945
aS'3257'
p3946
aS'1239'
p3947
a(lp3948
F9.39921867039309e-08
aF4.68451485977221e-06
aF0.0481010147606434
aF0.0222977210891845
atp3949
a((lp3950
S'33031'
p3951
aS'3257'
p3952
aS'1239'
p3953
a(lp3954
F1.95998596978663e-05
aF0.0481010147606434
aF0.0222977210891845
atp3955
a((lp3956
S'200130'
p3957
aS'1299'
p3958
aS'1239'
p3959
a(lp3960
F2.74487794461132e-05
aF0.0660545619843227
aF0.0222977210891845
atp3961
a((lp3962
S'262394'
p3963
aS'28329'
p3964
aS'6762'
p3965
aS'1239'
p3966
a(lp3967
F3.35712392458895e-06
aF6.6143792293351e-05
aF0.0210920859090755
aF0.0222977210891845
atp3968
a((lp3969
S'8218'
p3970
aS'6461'
p3971
aS'3356'
p3972
aS'5603'
p3973
aS'34547'
p3974
a(lp3975
F0.000795175585071411
aF0.00699346336271489
aF0.124241148669113
aF0.000422540607267003
aF1.30543733710548e-05
atp3976
a((lp3977
S'2152'
p3978
aS'3356'
p3979
aS'5603'
p3980
aS'34547'
p3981
a(lp3982
F0.00833065949661451
aF0.124241148669113
aF0.000422540607267003
aF1.30543733710548e-05
atp3983
a((lp3984
S'18786'
p3985
aS'4436'
p3986
aS'2914'
p3987
aS'5603'
p3988
aS'34547'
p3989
a(lp3990
F7.494125069259e-06
aF0.00328554233303079
aF0.0720832081876625
aF0.000422540607267003
aF1.30543733710548e-05
atp3991
a((lp3992
S'16559'
p3993
aS'6939'
p3994
aS'1239'
p3995
a(lp3996
F8.44281937259553e-06
aF0.0421958066707987
aF0.0222977210891845
atp3997
a((lp3998
S'4739'
p3999
aS'1239'
p4000
a(lp4001
F0.000939410508060609
aF0.0222977210891845
atp4002
a((lp4003
S'251'
p4004
aS'174'
p4005
aS'34547'
p4006
a(lp4007
F0.000106694011777437
aF0.0772177589423483
aF1.30543733710548e-05
atp4008
a((lp4009
S'1280'
p4010
aS'3356'
p4011
aS'5603'
p4012
aS'34547'
p4013
a(lp4014
F7.64351488854576e-05
aF0.124241148669113
aF0.000422540607267003
aF1.30543733710548e-05
atp4015
a((lp4016
S'28294'
p4017
aS'16735'
p4018
aS'1239'
p4019
a(lp4020
F9.40162202266497e-06
aF0.000862179944635994
aF0.0222977210891845
atp4021
a((lp4022
S'8492'
p4023
aS'20485'
p4024
aS'6453'
p4025
aS'1239'
p4026
a(lp4027
F4.59918937459098e-05
aF0.00202618776573413
aF0.0393720257829483
aF0.0222977210891845
atp4028
a((lp4029
S'37100'
p4030
aS'6453'
p4031
aS'1239'
p4032
a(lp4033
F0.00112891531199124
aF0.0393720257829483
aF0.0222977210891845
atp4034
a((lp4035
S'38883'
p4036
aS'4739'
p4037
aS'1239'
p4038
a(lp4039
F5.72107150328854e-06
aF0.000939410508060609
aF0.0222977210891845
atp4040
a((lp4041
S'5769'
p4042
aS'6453'
p4043
aS'3356'
p4044
aS'5603'
p4045
aS'34547'
p4046
a(lp4047
F0.000973214941955741
aF0.0393720257829483
aF0.124241148669113
aF0.000422540607267003
aF1.30543733710548e-05
atp4048
a((lp4049
S'12779'
p4050
aS'174'
p4051
aS'34547'
p4052
a(lp4053
F7.21971785721714e-05
aF0.0772177589423483
aF1.30543733710548e-05
atp4054
a((lp4055
S'35369'
p4056
aS'3330'
p4057
aS'3320'
p4058
aS'1239'
p4059
a(lp4060
F2.71359154629398e-05
aF2.92367951272599e-05
aF0.0269489834439575
aF0.0222977210891845
atp4061
a((lp4062
S'14361'
p4063
aS'174'
p4064
aS'34547'
p4065
a(lp4066
F6.2459670177168e-05
aF0.0772177589423483
aF1.30543733710548e-05
atp4067
a((lp4068
S'6453'
p4069
aS'2914'
p4070
aS'5603'
p4071
aS'34547'
p4072
a(lp4073
F0.0393720257829483
aF0.0720832081876625
aF0.000422540607267003
aF1.30543733710548e-05
atp4074
a((lp4075
S'7018'
p4076
aS'2914'
p4077
aS'5603'
p4078
aS'34547'
p4079
a(lp4080
F0.0569766296392941
aF0.0720832081876625
aF0.000422540607267003
aF1.30543733710548e-05
atp4081
a((lp4082
S'59469'
p4083
aS'1299'
p4084
aS'3356'
p4085
aS'5603'
p4086
aS'34547'
p4087
a(lp4088
F5.05902750576747e-06
aF0.0660545619843227
aF0.124241148669113
aF0.000422540607267003
aF1.30543733710548e-05
atp4089
a((lp4090
S'51185'
p4091
aS'3356'
p4092
aS'5603'
p4093
aS'34547'
p4094
a(lp4095
F8.46145982039847e-07
aF0.124241148669113
aF0.000422540607267003
aF1.30543733710548e-05
atp4096
a((lp4097
S'13237'
p4098
aS'1299'
p4099
aS'1239'
p4100
a(lp4101
F0.00092229221822097
aF0.0660545619843227
aF0.0222977210891845
atp4102
a((lp4103
S'2497'
p4104
aS'2914'
p4105
aS'5603'
p4106
aS'34547'
p4107
a(lp4108
F0.00393360140903633
aF0.0720832081876625
aF0.000422540607267003
aF1.30543733710548e-05
atp4109
a((lp4110
S'59469'
p4111
aS'1299'
p4112
aS'1239'
p4113
a(lp4114
F5.05902750576747e-06
aF0.0660545619843227
aF0.0222977210891845
atp4115
a((lp4116
S'7575'
p4117
aS'2914'
p4118
aS'5603'
p4119
aS'34547'
p4120
a(lp4121
F0.00166606242890739
aF0.0720832081876625
aF0.000422540607267003
aF1.30543733710548e-05
atp4122
a((lp4123
S'40387'
p4124
aS'7018'
p4125
aS'1239'
p4126
a(lp4127
F0.000123891449830277
aF0.0569766296392941
aF0.0222977210891845
atp4128
a((lp4129
S'18786'
p4130
aS'3257'
p4131
aS'1239'
p4132
a(lp4133
F7.494125069259e-06
aF0.0481010147606434
aF0.0222977210891845
atp4134
a((lp4135
S'1668'
p4136
aS'1239'
p4137
a(lp4138
F0.00201497151465834
aF0.0222977210891845
atp4139
a((lp4140
S'3267'
p4141
aS'2603'
p4142
aS'1299'
p4143
aS'3356'
p4144
aS'5603'
p4145
aS'34547'
p4146
a(lp4147
F0.000323234780868066
aF0.00178428588907878
aF0.0660545619843227
aF0.124241148669113
aF0.000422540607267003
aF1.30543733710548e-05
atp4148
a((lp4149
S'19151'
p4150
aS'174'
p4151
aS'34547'
p4152
a(lp4153
F0.000229305977600438
aF0.0772177589423483
aF1.30543733710548e-05
atp4154
a((lp4155
S'28220'
p4156
aS'12956'
p4157
aS'3356'
p4158
aS'5603'
p4159
aS'34547'
p4160
a(lp4161
F8.419048718466e-05
aF0.0217063937922367
aF0.124241148669113
aF0.000422540607267003
aF1.30543733710548e-05
atp4162
a((lp4163
S'6079'
p4164
aS'2914'
p4165
aS'5603'
p4166
aS'34547'
p4167
a(lp4168
F0.000364139886220823
aF0.0720832081876625
aF0.000422540607267003
aF1.30543733710548e-05
atp4169
a((lp4170
S'14361'
p4171
aS'3257'
p4172
aS'1239'
p4173
a(lp4174
F6.2459670177168e-05
aF0.0481010147606434
aF0.0222977210891845
atp4175
a((lp4176
S'5396'
p4177
aS'3356'
p4178
aS'5603'
p4179
aS'34547'
p4180
a(lp4181
F4.66440407691519e-05
aF0.124241148669113
aF0.000422540607267003
aF1.30543733710548e-05
atp4182
a((lp4183
S'30844'
p4184
aS'6939'
p4185
aS'1239'
p4186
a(lp4187
F0.000155775924128962
aF0.0421958066707987
aF0.0222977210891845
atp4188
a((lp4189
S'22548'
p4190
aS'3549'
p4191
aS'3356'
p4192
aS'5603'
p4193
aS'34547'
p4194
a(lp4195
F2.40530384292483e-06
aF0.014567957506214
aF0.124241148669113
aF0.000422540607267003
aF1.30543733710548e-05
atp4196
a((lp4197
S'28220'
p4198
aS'12956'
p4199
aS'1239'
p4200
a(lp4201
F8.419048718466e-05
aF0.0217063937922367
aF0.0222977210891845
atp4202
a((lp4203
S'20932'
p4204
aS'1299'
p4205
aS'1239'
p4206
a(lp4207
F3.6749119378425e-06
aF0.0660545619843227
aF0.0222977210891845
atp4208
a((lp4209
S'40191'
p4210
aS'3257'
p4211
aS'1239'
p4212
a(lp4213
F6.55096042257481e-06
aF0.0481010147606434
aF0.0222977210891845
atp4214
a((lp4215
S'5580'
p4216
aS'174'
p4217
aS'34547'
p4218
a(lp4219
F0.00132968696231354
aF0.0772177589423483
aF1.30543733710548e-05
atp4220
a((lp4221
S'34288'
p4222
aS'6939'
p4223
aS'1239'
p4224
a(lp4225
F6.35445069790768e-06
aF0.0421958066707987
aF0.0222977210891845
atp4226
a((lp4227
S'13703'
p4228
aS'6461'
p4229
aS'3356'
p4230
aS'5603'
p4231
aS'34547'
p4232
a(lp4233
F1.23224968933556e-05
aF0.00699346336271489
aF0.124241148669113
aF0.000422540607267003
aF1.30543733710548e-05
atp4234
a((lp4235
S'10026'
p4236
aS'1239'
p4237
a(lp4238
F0.00826451332049983
aF0.0222977210891845
atp4239
a((lp4240
S'8331'
p4241
aS'12714'
p4242
aS'1299'
p4243
aS'1239'
p4244
a(lp4245
F3.28900221110735e-05
aF0.000448164679080961
aF0.0660545619843227
aF0.0222977210891845
atp4246
a((lp4247
S'30844'
p4248
aS'6939'
p4249
aS'5603'
p4250
aS'34547'
p4251
a(lp4252
F0.000155775924128962
aF0.0421958066707987
aF0.000422540607267003
aF1.30543733710548e-05
atp4253
a((lp4254
S'262354'
p4255
aS'262589'
p4256
aS'2914'
p4257
aS'5603'
p4258
aS'34547'
p4259
a(lp4260
F1.3162270831731e-06
aF0.000321775295461847
aF0.0720832081876625
aF0.000422540607267003
aF1.30543733710548e-05
atp4261
a((lp4262
S'2895'
p4263
aS'3267'
p4264
aS'1273'
p4265
aS'1239'
p4266
a(lp4267
F3.85112629602817e-05
aF0.000323234780868066
aF0.00939518679731309
aF0.0222977210891845
atp4268
a((lp4269
S'38726'
p4270
aS'6453'
p4271
aS'1239'
p4272
a(lp4273
F1.71974744839158e-05
aF0.0393720257829483
aF0.0222977210891845
atp4274
a((lp4275
S'22873'
p4276
aS'6939'
p4277
aS'5603'
p4278
aS'34547'
p4279
a(lp4280
F5.05252444492739e-06
aF0.0421958066707987
aF0.000422540607267003
aF1.30543733710548e-05
atp4281
a((lp4282
S'2518'
p4283
aS'6453'
p4284
aS'1239'
p4285
a(lp4286
F0.00138262552667788
aF0.0393720257829483
aF0.0222977210891845
atp4287
a((lp4288
S'16700'
p4289
aS'6939'
p4290
aS'1239'
p4291
a(lp4292
F1.0432550695212e-05
aF0.0421958066707987
aF0.0222977210891845
atp4293
a((lp4294
S'262750'
p4295
aS'6762'
p4296
aS'1239'
p4297
a(lp4298
F1.52992486134191e-05
aF0.0210920859090755
aF0.0222977210891845
atp4299
a((lp4300
S'19151'
p4301
aS'19895'
p4302
aS'3257'
p4303
aS'1239'
p4304
a(lp4305
F0.000229305977600438
aF6.95804654612013e-08
aF0.0481010147606434
aF0.0222977210891845
atp4306
a((lp4307
S'48285'
p4308
aS'42708'
p4309
aS'2914'
p4310
aS'5603'
p4311
aS'34547'
p4312
a(lp4313
F1.2218302616014e-06
aF0.00013597530899494
aF0.0720832081876625
aF0.000422540607267003
aF1.30543733710548e-05
atp4314
a((lp4315
S'6423'
p4316
aS'209'
p4317
aS'2914'
p4318
aS'5603'
p4319
aS'34547'
p4320
a(lp4321
F3.59665972464924e-05
aF0.0505723582129628
aF0.0720832081876625
aF0.000422540607267003
aF1.30543733710548e-05
atp4322
a((lp4323
S'54073'
p4324
aS'2044'
p4325
aS'6939'
p4326
aS'1239'
p4327
a(lp4328
F9.39869432001077e-08
aF6.33935731313418e-05
aF0.0421958066707987
aF0.0222977210891845
atp4329
a((lp4330
S'1916'
p4331
aS'3356'
p4332
aS'5603'
p4333
aS'34547'
p4334
a(lp4335
F0.000773578018597953
aF0.124241148669113
aF0.000422540607267003
aF1.30543733710548e-05
atp4336
a((lp4337
S'4739'
p4338
aS'1299'
p4339
aS'1239'
p4340
a(lp4341
F0.000939410508060609
aF0.0660545619843227
aF0.0222977210891845
atp4342
a((lp4343
S'8758'
p4344
aS'6830'
p4345
aS'1239'
p4346
a(lp4347
F1.88285119645148e-05
aF0.00482639316305059
aF0.0222977210891845
atp4348
a((lp4349
S'393406'
p4350
aS'1299'
p4351
aS'1239'
p4352
a(lp4353
F6.20415978696724e-06
aF0.0660545619843227
aF0.0222977210891845
atp4354
a((lp4355
S'38883'
p4356
aS'4826'
p4357
aS'6939'
p4358
aS'5603'
p4359
aS'34547'
p4360
a(lp4361
F5.72107150328854e-06
aF0.00123910427528066
aF0.0421958066707987
aF0.000422540607267003
aF1.30543733710548e-05
atp4362
a((lp4363
S'14840'
p4364
aS'26615'
p4365
aS'6762'
p4366
aS'1239'
p4367
a(lp4368
F5.97927149159832e-05
aF0.00405845849994945
aF0.0210920859090755
aF0.0222977210891845
atp4369
a((lp4370
S'3549'
p4371
aS'3356'
p4372
aS'5603'
p4373
aS'34547'
p4374
a(lp4375
F0.014567957506214
aF0.124241148669113
aF0.000422540607267003
aF1.30543733710548e-05
atp4376
a((lp4377
S'14537'
p4378
aS'3356'
p4379
aS'5603'
p4380
aS'34547'
p4381
a(lp4382
F1.0525427583923e-05
aF0.124241148669113
aF0.000422540607267003
aF1.30543733710548e-05
atp4383
a((lp4384
S'209'
p4385
aS'3356'
p4386
aS'5603'
p4387
aS'34547'
p4388
a(lp4389
F0.0505723582129628
aF0.124241148669113
aF0.000422540607267003
aF1.30543733710548e-05
atp4390
a((lp4391
S'1916'
p4392
aS'20080'
p4393
aS'6762'
p4394
aS'1239'
p4395
a(lp4396
F0.000773578018597953
aF0.000462712747623425
aF0.0210920859090755
aF0.0222977210891845
atp4397
a((lp4398
S'29222'
p4399
aS'3303'
p4400
aS'1239'
p4401
a(lp4402
F5.35725576240614e-06
aF0.00184768125761815
aF0.0222977210891845
atp4403
a((lp4404
S'6667'
p4405
aS'3257'
p4406
aS'1239'
p4407
a(lp4408
F0.00156550456282372
aF0.0481010147606434
aF0.0222977210891845
atp4409
a((lp4410
S'9002'
p4411
aS'2914'
p4412
aS'5603'
p4413
aS'34547'
p4414
a(lp4415
F0.00345493988143296
aF0.0720832081876625
aF0.000422540607267003
aF1.30543733710548e-05
atp4416
a((lp4417
S'49605'
p4418
aS'3269'
p4419
aS'6762'
p4420
aS'1239'
p4421
a(lp4422
F1.03690694060576e-05
aF0.00773310557146753
aF0.0210920859090755
aF0.0222977210891845
atp4423
a((lp4424
S'19754'
p4425
aS'3356'
p4426
aS'5603'
p4427
aS'34547'
p4428
a(lp4429
F4.603995891604e-06
aF0.124241148669113
aF0.000422540607267003
aF1.30543733710548e-05
atp4430
a((lp4431
S'209'
p4432
aS'1239'
p4433
a(lp4434
F0.0505723582129628
aF0.0222977210891845
atp4435
a((lp4436
S'34288'
p4437
aS'6939'
p4438
aS'5603'
p4439
aS'34547'
p4440
a(lp4441
F6.35445069790768e-06
aF0.0421958066707987
aF0.000422540607267003
aF1.30543733710548e-05
atp4442
a((lp4443
S'2518'
p4444
aS'2914'
p4445
aS'5603'
p4446
aS'34547'
p4447
a(lp4448
F0.00138262552667788
aF0.0720832081876625
aF0.000422540607267003
aF1.30543733710548e-05
atp4449
a((lp4450
S'262750'
p4451
aS'3549'
p4452
aS'3356'
p4453
aS'5603'
p4454
aS'34547'
p4455
a(lp4456
F1.52992486134191e-05
aF0.014567957506214
aF0.124241148669113
aF0.000422540607267003
aF1.30543733710548e-05
atp4457
a((lp4458
S'28138'
p4459
aS'16735'
p4460
aS'3549'
p4461
aS'3356'
p4462
aS'5603'
p4463
aS'34547'
p4464
a(lp4465
F1.50334559725845e-06
aF0.000862179944635994
aF0.014567957506214
aF0.124241148669113
aF0.000422540607267003
aF1.30543733710548e-05
atp4466
a((lp4467
S'40191'
p4468
aS'6939'
p4469
aS'5603'
p4470
aS'34547'
p4471
a(lp4472
F6.55096042257481e-06
aF0.0421958066707987
aF0.000422540607267003
aF1.30543733710548e-05
atp4473
a((lp4474
S'6762'
p4475
aS'1239'
p4476
a(lp4477
F0.0210920859090755
aF0.0222977210891845
atp4478
a((lp4479
S'8218'
p4480
aS'6461'
p4481
aS'2914'
p4482
aS'5603'
p4483
aS'34547'
p4484
a(lp4485
F0.000795175585071411
aF0.00699346336271489
aF0.0720832081876625
aF0.000422540607267003
aF1.30543733710548e-05
atp4486
a((lp4487
S'35369'
p4488
aS'8218'
p4489
aS'1299'
p4490
aS'1239'
p4491
a(lp4492
F2.71359154629398e-05
aF0.000795175585071411
aF0.0660545619843227
aF0.0222977210891845
atp4493
a((lp4494
S'13703'
p4495
aS'3356'
p4496
aS'5603'
p4497
aS'34547'
p4498
a(lp4499
F1.23224968933556e-05
aF0.124241148669113
aF0.000422540607267003
aF1.30543733710548e-05
atp4500
a((lp4501
S'37100'
p4502
aS'3356'
p4503
aS'5603'
p4504
aS'34547'
p4505
a(lp4506
F0.00112891531199124
aF0.124241148669113
aF0.000422540607267003
aF1.30543733710548e-05
atp4507
a((lp4508
S'1668'
p4509
aS'3356'
p4510
aS'5603'
p4511
aS'34547'
p4512
a(lp4513
F0.00201497151465834
aF0.124241148669113
aF0.000422540607267003
aF1.30543733710548e-05
atp4514
a((lp4515
S'12859'
p4516
aS'3257'
p4517
aS'1239'
p4518
a(lp4519
F3.52821921682361e-05
aF0.0481010147606434
aF0.0222977210891845
atp4520
a((lp4521
S'52720'
p4522
aS'28329'
p4523
aS'6762'
p4524
aS'1239'
p4525
a(lp4526
F1.14536375547942e-05
aF6.6143792293351e-05
aF0.0210920859090755
aF0.0222977210891845
atp4527
a((lp4528
S'6720'
p4529
aS'1853'
p4530
aS'1764'
p4531
aS'3257'
p4532
aS'1239'
p4533
a(lp4534
F2.55644485504293e-05
aF0.000555575148375815
aF0.00033494284028512
aF0.0481010147606434
aF0.0222977210891845
atp4535
a((lp4536
S'38809'
p4537
aS'2914'
p4538
aS'5603'
p4539
aS'34547'
p4540
a(lp4541
F0.000249265835950727
aF0.0720832081876625
aF0.000422540607267003
aF1.30543733710548e-05
atp4542
a((lp4543
S'202018'
p4544
aS'1299'
p4545
aS'1239'
p4546
a(lp4547
F6.11035092100843e-06
aF0.0660545619843227
aF0.0222977210891845
atp4548
a((lp4549
S'286'
p4550
aS'2914'
p4551
aS'5603'
p4552
aS'34547'
p4553
a(lp4554
F0.00520655795826339
aF0.0720832081876625
aF0.000422540607267003
aF1.30543733710548e-05
atp4555
a((lp4556
S'22873'
p4557
aS'6939'
p4558
aS'1239'
p4559
a(lp4560
F5.05252444492739e-06
aF0.0421958066707987
aF0.0222977210891845
atp4561
a((lp4562
S'3303'
p4563
aS'1239'
p4564
a(lp4565
F0.00184768125761815
aF0.0222977210891845
atp4566
a((lp4567
S'48526'
p4568
aS'2914'
p4569
aS'5603'
p4570
aS'34547'
p4571
a(lp4572
F1.54186601171706e-05
aF0.0720832081876625
aF0.000422540607267003
aF1.30543733710548e-05
atp4573
a((lp4574
S'36351'
p4575
aS'2914'
p4576
aS'5603'
p4577
aS'34547'
p4578
a(lp4579
F0.00111109054379448
aF0.0720832081876625
aF0.000422540607267003
aF1.30543733710548e-05
atp4580
a((lp4581
S'41695'
p4582
aS'2914'
p4583
aS'5603'
p4584
aS'34547'
p4585
a(lp4586
F3.76031835709e-06
aF0.0720832081876625
aF0.000422540607267003
aF1.30543733710548e-05
atp4587
a((lp4588
S'41095'
p4589
aS'5603'
p4590
aS'34547'
p4591
a(lp4592
F5.51664867578307e-05
aF0.000422540607267003
aF1.30543733710548e-05
atp4593
a((lp4594
S'11666'
p4595
aS'3356'
p4596
aS'5603'
p4597
aS'34547'
p4598
a(lp4599
F6.06110955594495e-05
aF0.124241148669113
aF0.000422540607267003
aF1.30543733710548e-05
atp4600
a((lp4601
S'8492'
p4602
aS'9002'
p4603
aS'2914'
p4604
aS'5603'
p4605
aS'34547'
p4606
a(lp4607
F4.59918937459098e-05
aF0.00345493988143296
aF0.0720832081876625
aF0.000422540607267003
aF1.30543733710548e-05
atp4608
a((lp4609
S'15605'
p4610
aS'3257'
p4611
aS'1239'
p4612
a(lp4613
F3.28976681952629e-06
aF0.0481010147606434
aF0.0222977210891845
atp4614
a((lp4615
S'4436'
p4616
aS'2914'
p4617
aS'5603'
p4618
aS'34547'
p4619
a(lp4620
F0.00328554233303079
aF0.0720832081876625
aF0.000422540607267003
aF1.30543733710548e-05
atp4621
a((lp4622
S'28347'
p4623
aS'28168'
p4624
aS'262589'
p4625
aS'2914'
p4626
aS'5603'
p4627
aS'34547'
p4628
a(lp4629
F2.20283524612319e-05
aF0.000103931052725345
aF0.000321775295461847
aF0.0720832081876625
aF0.000422540607267003
aF1.30543733710548e-05
atp4630
a((lp4631
S'56730'
p4632
aS'51945'
p4633
aS'1299'
p4634
aS'1239'
p4635
a(lp4636
F2.63163440960302e-06
aF3.34227363826962e-06
aF0.0660545619843227
aF0.0222977210891845
atp4637
a((lp4638
S'53175'
p4639
aS'8167'
p4640
aS'7738'
p4641
aS'1239'
p4642
a(lp4643
F3.19555606880366e-06
aF0.00193644860400241
aF0.0050228627769106
aF0.0222977210891845
atp4644
a((lp4645
S'48166'
p4646
aS'12389'
p4647
aS'3257'
p4648
aS'1239'
p4649
a(lp4650
F1.24089729066667e-05
aF0.00563634991512794
aF0.0481010147606434
aF0.0222977210891845
atp4651
a((lp4652
S'251'
p4653
aS'1239'
p4654
a(lp4655
F0.000106694011777437
aF0.0222977210891845
atp4656
a((lp4657
S'6067'
p4658
aS'6453'
p4659
aS'1239'
p4660
a(lp4661
F1.76813269055943e-05
aF0.0393720257829483
aF0.0222977210891845
atp4662
a((lp4663
S'58511'
p4664
aS'2764'
p4665
aS'3356'
p4666
aS'5603'
p4667
aS'34547'
p4668
a(lp4669
F3.68143564127997e-06
aF0.00140734088173706
aF0.124241148669113
aF0.000422540607267003
aF1.30543733710548e-05
atp4670
a((lp4671
S'6067'
p4672
aS'286'
p4673
aS'1239'
p4674
a(lp4675
F1.76813269055943e-05
aF0.00520655795826339
aF0.0222977210891845
atp4676
a((lp4677
S'1299'
p4678
aS'1239'
p4679
a(lp4680
F0.0660545619843227
aF0.0222977210891845
atp4681
a((lp4682
S'28294'
p4683
aS'28168'
p4684
aS'262589'
p4685
aS'2914'
p4686
aS'5603'
p4687
aS'34547'
p4688
a(lp4689
F9.40162202266497e-06
aF0.000103931052725345
aF0.000321775295461847
aF0.0720832081876625
aF0.000422540607267003
aF1.30543733710548e-05
atp4690
a((lp4691
S'202109'
p4692
aS'1299'
p4693
aS'1239'
p4694
a(lp4695
F6.11027392921054e-06
aF0.0660545619843227
aF0.0222977210891845
atp4696
a((lp4697
S'15435'
p4698
aS'286'
p4699
aS'1239'
p4700
a(lp4701
F4.81213149184551e-05
aF0.00520655795826339
aF0.0222977210891845
atp4702
a((lp4703
S'4826'
p4704
aS'6939'
p4705
aS'1239'
p4706
a(lp4707
F0.00123910427528066
aF0.0421958066707987
aF0.0222977210891845
atp4708
a((lp4709
S'19151'
p4710
aS'19895'
p4711
aS'3257'
p4712
aS'3356'
p4713
aS'5603'
p4714
aS'34547'
p4715
a(lp4716
F0.000229305977600438
aF6.95804654612013e-08
aF0.0481010147606434
aF0.124241148669113
aF0.000422540607267003
aF1.30543733710548e-05
atp4717
a((lp4718
S'262620'
p4719
aS'3549'
p4720
aS'3356'
p4721
aS'5603'
p4722
aS'34547'
p4723
a(lp4724
F7.51895545600862e-07
aF0.014567957506214
aF0.124241148669113
aF0.000422540607267003
aF1.30543733710548e-05
atp4725
a((lp4726
S'3549'
p4727
aS'1239'
p4728
a(lp4729
F0.014567957506214
aF0.0222977210891845
atp4730
assS'prefix'
p4731
S'95.128.184.0/22'
p4732
sS'local_paths'
p4733
(dp4734
g49
(dp4735
S'1239'
p4736
(lp4737
((lp4738
S'3561'
p4739
aS'1239'
p4740
a(lp4741
I0
aF1.0
atp4742
a((lp4743
S'8607'
p4744
aS'3257'
p4745
aS'1239'
p4746
a(lp4747
I0
aF0.0195703380954512
aF1.0
atp4748
a((lp4749
S'53237'
p4750
aS'12956'
p4751
aS'1239'
p4752
a(lp4753
I0
aI0
aF1.0
atp4754
a((lp4755
S'6423'
p4756
aS'209'
p4757
aS'1239'
p4758
a(lp4759
I0
aI0
aF1.0
atp4760
a((lp4761
S'20225'
p4762
aS'6939'
p4763
aS'1239'
p4764
a(lp4765
I0
aI0
aF1.0
atp4766
a((lp4767
S'15301'
p4768
aS'6939'
p4769
aS'1239'
p4770
a(lp4771
I0
aI0
aF1.0
atp4772
a((lp4773
S'262394'
p4774
aS'28329'
p4775
aS'6762'
p4776
aS'1239'
p4777
a(lp4778
I0
aI0
aI0
aF1.0
atp4779
a((lp4780
S'8222'
p4781
aS'1299'
p4782
aS'1239'
p4783
a(lp4784
I0
aF0.0556297833915078
aF1.0
atp4785
a((lp4786
S'4777'
p4787
aS'2497'
p4788
aS'1239'
p4789
a(lp4790
I0
aI0
aF1.0
atp4791
a((lp4792
S'19754'
p4793
aS'6939'
p4794
aS'1239'
p4795
a(lp4796
I0
aI0
aF1.0
atp4797
a((lp4798
S'36351'
p4799
aS'1299'
p4800
aS'1239'
p4801
a(lp4802
I0
aF0.0556297833915078
aF1.0
atp4803
a((lp4804
S'59715'
p4805
aS'3269'
p4806
aS'6762'
p4807
aS'1239'
p4808
a(lp4809
I0
aI0
aI0
aF1.0
atp4810
a((lp4811
S'52888'
p4812
aS'1251'
p4813
aS'20080'
p4814
aS'6762'
p4815
aS'1239'
p4816
a(lp4817
I0
aI0
aI0
aI0
aF1.0
atp4818
a((lp4819
S'6453'
p4820
aS'1239'
p4821
a(lp4822
F3.42299116400288e-06
aF1.0
atp4823
a((lp4824
S'28138'
p4825
aS'16735'
p4826
aS'1239'
p4827
a(lp4828
I0
aI0
aF1.0
atp4829
a((lp4830
S'25220'
p4831
aS'1299'
p4832
aS'1239'
p4833
a(lp4834
I0
aF0.0556297833915078
aF1.0
atp4835
a((lp4836
S'553'
p4837
aS'1299'
p4838
aS'1239'
p4839
a(lp4840
I0
aF0.0556297833915078
aF1.0
atp4841
a((lp4842
S'4589'
p4843
aS'3257'
p4844
aS'1239'
p4845
a(lp4846
I0
aF0.0195703380954512
aF1.0
atp4847
a((lp4848
S'3292'
p4849
aS'1239'
p4850
a(lp4851
I0
aF1.0
atp4852
a((lp4853
S'8419'
p4854
aS'3257'
p4855
aS'1239'
p4856
a(lp4857
I0
aF0.0195703380954512
aF1.0
atp4858
a((lp4859
S'31500'
p4860
aS'1273'
p4861
aS'1239'
p4862
a(lp4863
I0
aI0
aF1.0
atp4864
a((lp4865
S'5396'
p4866
aS'3257'
p4867
aS'1239'
p4868
a(lp4869
I0
aF0.0195703380954512
aF1.0
atp4870
a((lp4871
S'5769'
p4872
aS'1239'
p4873
a(lp4874
I0
aF1.0
atp4875
a((lp4876
S'6939'
p4877
aS'1239'
p4878
a(lp4879
I0
aF1.0
atp4880
a((lp4881
S'3257'
p4882
aS'1239'
p4883
a(lp4884
F0.0195703380954512
aF1.0
atp4885
a((lp4886
S'2497'
p4887
aS'1239'
p4888
a(lp4889
I0
aF1.0
atp4890
a((lp4891
S'13237'
p4892
aS'1299'
p4893
aS'1239'
p4894
a(lp4895
I0
aF0.0556297833915078
aF1.0
atp4896
a((lp4897
S'286'
p4898
aS'1239'
p4899
a(lp4900
I0
aF1.0
atp4901
a((lp4902
S'53070'
p4903
aS'12989'
p4904
aS'6762'
p4905
aS'1239'
p4906
a(lp4907
I0
aI0
aI0
aF1.0
atp4908
a((lp4909
S'22548'
p4910
aS'16735'
p4911
aS'1239'
p4912
a(lp4913
I0
aI0
aF1.0
atp4914
a((lp4915
S'57381'
p4916
aS'50304'
p4917
aS'1299'
p4918
aS'1239'
p4919
a(lp4920
I0
aI0
aF0.0556297833915078
aF1.0
atp4921
a((lp4922
S'9189'
p4923
aS'8422'
p4924
aS'1299'
p4925
aS'1239'
p4926
a(lp4927
I0
aI0
aF0.0556297833915078
aF1.0
atp4928
a((lp4929
S'11666'
p4930
aS'3257'
p4931
aS'1239'
p4932
a(lp4933
I0
aF0.0195703380954512
aF1.0
atp4934
a((lp4935
S'8426'
p4936
aS'6453'
p4937
aS'1239'
p4938
a(lp4939
I0
aF3.42299116400288e-06
aF1.0
atp4940
a((lp4941
S'13030'
p4942
aS'1239'
p4943
a(lp4944
I0
aF1.0
atp4945
a((lp4946
S'35369'
p4947
aS'8218'
p4948
aS'1299'
p4949
aS'1239'
p4950
a(lp4951
I0
aI0
aF0.0556297833915078
aF1.0
atp4952
a((lp4953
S'8447'
p4954
aS'1299'
p4955
aS'1239'
p4956
a(lp4957
I0
aF0.0556297833915078
aF1.0
atp4958
a((lp4959
S'58511'
p4960
aS'17819'
p4961
aS'4826'
p4962
aS'6939'
p4963
aS'1239'
p4964
a(lp4965
I0
aI0
aI0
aI0
aF1.0
atp4966
a((lp4967
S'262476'
p4968
aS'16735'
p4969
aS'1239'
p4970
a(lp4971
I0
aI0
aF1.0
atp4972
a((lp4973
S'29686'
p4974
aS'3257'
p4975
aS'1239'
p4976
a(lp4977
I0
aF0.0195703380954512
aF1.0
atp4978
a((lp4979
S'197264'
p4980
aS'8218'
p4981
aS'5511'
p4982
aS'1239'
p4983
a(lp4984
I0
aI0
aI0
aF1.0
atp4985
a((lp4986
S'7660'
p4987
aS'2516'
p4988
aS'209'
p4989
aS'1239'
p4990
a(lp4991
I0
aI0
aI0
aF1.0
atp4992
a((lp4993
S'24482'
p4994
aS'6939'
p4995
aS'1239'
p4996
a(lp4997
I0
aI0
aF1.0
atp4998
a((lp4999
S'262757'
p5000
aS'16735'
p5001
aS'1239'
p5002
a(lp5003
I0
aI0
aF1.0
atp5004
a((lp5005
g373
a(lp5006
F1.0
atp5007
a((lp5008
S'22873'
p5009
aS'6939'
p5010
aS'1239'
p5011
a(lp5012
I0
aI0
aF1.0
atp5013
a((lp5014
S'28571'
p5015
aS'1916'
p5016
aS'20080'
p5017
aS'6762'
p5018
aS'1239'
p5019
a(lp5020
I0
aI0
aI0
aI0
aF1.0
atp5021
a((lp5022
S'41695'
p5023
aS'6067'
p5024
aS'286'
p5025
aS'1239'
p5026
a(lp5027
I0
aI0
aI0
aF1.0
atp5028
a((lp5029
S'3130'
p5030
aS'1239'
p5031
a(lp5032
I0
aF1.0
atp5033
a((lp5034
S'8218'
p5035
aS'1299'
p5036
aS'1239'
p5037
a(lp5038
I0
aF0.0556297833915078
aF1.0
atp5039
a((lp5040
S'6720'
p5041
aS'8447'
p5042
aS'1299'
p5043
aS'1239'
p5044
a(lp5045
I0
aI0
aF0.0556297833915078
aF1.0
atp5046
a((lp5047
S'3333'
p5048
aS'1257'
p5049
aS'1239'
p5050
a(lp5051
I0
aI0
aF1.0
atp5052
a((lp5053
S'3267'
p5054
aS'2603'
p5055
aS'1299'
p5056
aS'1239'
p5057
a(lp5058
I0
aI0
aF0.0556297833915078
aF1.0
atp5059
a((lp5060
S'8596'
p5061
aS'286'
p5062
aS'1239'
p5063
a(lp5064
I0
aI0
aF1.0
atp5065
a((lp5066
S'7018'
p5067
aS'1239'
p5068
a(lp5069
I0
aF1.0
atp5070
a((lp5071
S'1103'
p5072
aS'3257'
p5073
aS'1239'
p5074
a(lp5075
I0
aF0.0195703380954512
aF1.0
atp5076
a((lp5077
S'19151'
p5078
aS'19895'
p5079
aS'3257'
p5080
aS'1239'
p5081
a(lp5082
I0
aI0
aF0.0195703380954512
aF1.0
atp5083
a((lp5084
S'20632'
p5085
aS'31133'
p5086
aS'1299'
p5087
aS'1239'
p5088
a(lp5089
I0
aI0
aF0.0556297833915078
aF1.0
atp5090
a((lp5091
S'10026'
p5092
aS'3257'
p5093
aS'1239'
p5094
a(lp5095
I0
aF0.0195703380954512
aF1.0
atp5096
a((lp5097
S'1798'
p5098
aS'7385'
p5099
aS'7922'
p5100
aS'1239'
p5101
a(lp5102
I0
aI0
aI0
aF1.0
atp5103
a((lp5104
S'1853'
p5105
aS'1764'
p5106
aS'3257'
p5107
aS'1239'
p5108
a(lp5109
I0
aI0
aF0.0195703380954512
aF1.0
atp5110
a((lp5111
S'28329'
p5112
aS'6762'
p5113
aS'1239'
p5114
a(lp5115
I0
aI0
aF1.0
atp5116
a((lp5117
S'8758'
p5118
aS'6830'
p5119
aS'1239'
p5120
a(lp5121
I0
aI0
aF1.0
atp5122
a((lp5123
S'6881'
p5124
aS'15685'
p5125
aS'1299'
p5126
aS'1239'
p5127
a(lp5128
I0
aI0
aF0.0556297833915078
aF1.0
atp5129
a((lp5130
S'54073'
p5131
aS'2044'
p5132
aS'6939'
p5133
aS'1239'
p5134
a(lp5135
I0
aI0
aI0
aF1.0
atp5136
a((lp5137
S'8928'
p5138
aS'3257'
p5139
aS'1239'
p5140
a(lp5141
I0
aF0.0195703380954512
aF1.0
atp5142
a((lp5143
S'25152'
p5144
aS'6939'
p5145
aS'1239'
p5146
a(lp5147
I0
aI0
aF1.0
atp5148
a((lp5149
S'3356'
p5150
aS'1239'
p5151
a(lp5152
F0.0337756282928173
aF1.0
atp5153
a((lp5154
S'7500'
p5155
aS'2497'
p5156
aS'1239'
p5157
a(lp5158
I0
aI0
aF1.0
atp5159
a((lp5160
S'701'
p5161
aS'1239'
p5162
a(lp5163
I0
aF1.0
atp5164
a((lp5165
S'2914'
p5166
aS'1239'
p5167
a(lp5168
F0.0627669920211001
aF1.0
atp5169
a((lp5170
S'3333'
p5171
aS'1299'
p5172
aS'1239'
p5173
a(lp5174
I0
aF0.0556297833915078
aF1.0
atp5175
a((lp5176
S'57821'
p5177
aS'48039'
p5178
aS'3257'
p5179
aS'1239'
p5180
a(lp5181
I0
aI0
aF0.0195703380954512
aF1.0
atp5182
a((lp5183
S'33031'
p5184
aS'3257'
p5185
aS'1239'
p5186
a(lp5187
I0
aF0.0195703380954512
aF1.0
atp5188
a((lp5189
S'200130'
p5190
aS'1299'
p5191
aS'1239'
p5192
a(lp5193
I0
aF0.0556297833915078
aF1.0
atp5194
a((lp5195
S'16559'
p5196
aS'6939'
p5197
aS'1239'
p5198
a(lp5199
I0
aI0
aF1.0
atp5200
a((lp5201
S'4739'
p5202
aS'1239'
p5203
a(lp5204
I0
aF1.0
atp5205
a((lp5206
S'28294'
p5207
aS'16735'
p5208
aS'1239'
p5209
a(lp5210
I0
aI0
aF1.0
atp5211
a((lp5212
S'8492'
p5213
aS'20485'
p5214
aS'6453'
p5215
aS'1239'
p5216
a(lp5217
I0
aI0
aF3.42299116400288e-06
aF1.0
atp5218
a((lp5219
S'37100'
p5220
aS'6453'
p5221
aS'1239'
p5222
a(lp5223
I0
aF3.42299116400288e-06
aF1.0
atp5224
a((lp5225
S'38883'
p5226
aS'4739'
p5227
aS'1239'
p5228
a(lp5229
I0
aI0
aF1.0
atp5230
a((lp5231
S'35369'
p5232
aS'3330'
p5233
aS'3320'
p5234
aS'1239'
p5235
a(lp5236
I0
aI0
aI0
aF1.0
atp5237
a((lp5238
S'133165'
p5239
aS'3491'
p5240
aS'1239'
p5241
a(lp5242
I0
aI0
aF1.0
atp5243
a((lp5244
S'6067'
p5245
aS'286'
p5246
aS'1239'
p5247
a(lp5248
I0
aI0
aF1.0
atp5249
a((lp5250
S'29140'
p5251
aS'3257'
p5252
aS'1239'
p5253
a(lp5254
I0
aF0.0195703380954512
aF1.0
atp5255
a((lp5256
S'59469'
p5257
aS'1299'
p5258
aS'1239'
p5259
a(lp5260
I0
aF0.0556297833915078
aF1.0
atp5261
a((lp5262
S'40387'
p5263
aS'7018'
p5264
aS'1239'
p5265
a(lp5266
I0
aI0
aF1.0
atp5267
a((lp5268
S'18786'
p5269
aS'3257'
p5270
aS'1239'
p5271
a(lp5272
I0
aF0.0195703380954512
aF1.0
atp5273
a((lp5274
S'1668'
p5275
aS'1239'
p5276
a(lp5277
I0
aF1.0
atp5278
a((lp5279
S'62567'
p5280
aS'1299'
p5281
aS'1239'
p5282
a(lp5283
I0
aF0.0556297833915078
aF1.0
atp5284
a((lp5285
S'24482'
p5286
aS'6453'
p5287
aS'1239'
p5288
a(lp5289
I0
aF3.42299116400288e-06
aF1.0
atp5290
a((lp5291
S'14361'
p5292
aS'3257'
p5293
aS'1239'
p5294
a(lp5295
I0
aF0.0195703380954512
aF1.0
atp5296
a((lp5297
S'30844'
p5298
aS'6939'
p5299
aS'1239'
p5300
a(lp5301
I0
aI0
aF1.0
atp5302
a((lp5303
S'28220'
p5304
aS'12956'
p5305
aS'1239'
p5306
a(lp5307
I0
aI0
aF1.0
atp5308
a((lp5309
S'20932'
p5310
aS'1299'
p5311
aS'1239'
p5312
a(lp5313
I0
aF0.0556297833915078
aF1.0
atp5314
a((lp5315
S'40191'
p5316
aS'3257'
p5317
aS'1239'
p5318
a(lp5319
I0
aF0.0195703380954512
aF1.0
atp5320
a((lp5321
S'34288'
p5322
aS'6939'
p5323
aS'1239'
p5324
a(lp5325
I0
aI0
aF1.0
atp5326
a((lp5327
S'10026'
p5328
aS'1239'
p5329
a(lp5330
I0
aF1.0
atp5331
a((lp5332
S'8331'
p5333
aS'12714'
p5334
aS'1299'
p5335
aS'1239'
p5336
a(lp5337
I0
aI0
aF0.0556297833915078
aF1.0
atp5338
a((lp5339
S'2895'
p5340
aS'3267'
p5341
aS'1273'
p5342
aS'1239'
p5343
a(lp5344
I0
aI0
aI0
aF1.0
atp5345
a((lp5346
S'38726'
p5347
aS'6453'
p5348
aS'1239'
p5349
a(lp5350
I0
aF3.42299116400288e-06
aF1.0
atp5351
a((lp5352
S'2518'
p5353
aS'6453'
p5354
aS'1239'
p5355
a(lp5356
I0
aF3.42299116400288e-06
aF1.0
atp5357
a((lp5358
S'16700'
p5359
aS'6939'
p5360
aS'1239'
p5361
a(lp5362
I0
aI0
aF1.0
atp5363
a((lp5364
S'262750'
p5365
aS'6762'
p5366
aS'1239'
p5367
a(lp5368
I0
aI0
aF1.0
atp5369
a((lp5370
S'4739'
p5371
aS'1299'
p5372
aS'1239'
p5373
a(lp5374
I0
aF0.0556297833915078
aF1.0
atp5375
a((lp5376
S'393406'
p5377
aS'1299'
p5378
aS'1239'
p5379
a(lp5380
I0
aF0.0556297833915078
aF1.0
atp5381
a((lp5382
S'14840'
p5383
aS'26615'
p5384
aS'6762'
p5385
aS'1239'
p5386
a(lp5387
I0
aI0
aI0
aF1.0
atp5388
a((lp5389
S'48166'
p5390
aS'12389'
p5391
aS'3257'
p5392
aS'1239'
p5393
a(lp5394
I0
aI0
aF0.0195703380954512
aF1.0
atp5395
a((lp5396
S'6720'
p5397
aS'1853'
p5398
aS'1764'
p5399
aS'3257'
p5400
aS'1239'
p5401
a(lp5402
I0
aI0
aI0
aF0.0195703380954512
aF1.0
atp5403
a((lp5404
S'29222'
p5405
aS'3303'
p5406
aS'1239'
p5407
a(lp5408
I0
aI0
aF1.0
atp5409
a((lp5410
S'1916'
p5411
aS'20080'
p5412
aS'6762'
p5413
aS'1239'
p5414
a(lp5415
I0
aI0
aI0
aF1.0
atp5416
a((lp5417
S'6667'
p5418
aS'3257'
p5419
aS'1239'
p5420
a(lp5421
I0
aF0.0195703380954512
aF1.0
atp5422
a((lp5423
S'49605'
p5424
aS'3269'
p5425
aS'6762'
p5426
aS'1239'
p5427
a(lp5428
I0
aI0
aI0
aF1.0
atp5429
a((lp5430
S'209'
p5431
aS'1239'
p5432
a(lp5433
I0
aF1.0
atp5434
a((lp5435
S'6762'
p5436
aS'1239'
p5437
a(lp5438
I0
aF1.0
atp5439
a((lp5440
S'12859'
p5441
aS'3257'
p5442
aS'1239'
p5443
a(lp5444
I0
aF0.0195703380954512
aF1.0
atp5445
a((lp5446
S'52720'
p5447
aS'28329'
p5448
aS'6762'
p5449
aS'1239'
p5450
a(lp5451
I0
aI0
aI0
aF1.0
atp5452
a((lp5453
S'202018'
p5454
aS'1299'
p5455
aS'1239'
p5456
a(lp5457
I0
aF0.0556297833915078
aF1.0
atp5458
a((lp5459
S'10102'
p5460
aS'6453'
p5461
aS'1239'
p5462
a(lp5463
I0
aF3.42299116400288e-06
aF1.0
atp5464
a((lp5465
S'3303'
p5466
aS'1239'
p5467
a(lp5468
I0
aF1.0
atp5469
a((lp5470
S'41695'
p5471
aS'6067'
p5472
aS'6453'
p5473
aS'1239'
p5474
a(lp5475
I0
aI0
aF3.42299116400288e-06
aF1.0
atp5476
a((lp5477
S'4826'
p5478
aS'6939'
p5479
aS'1239'
p5480
a(lp5481
I0
aI0
aF1.0
atp5482
a((lp5483
S'56730'
p5484
aS'51945'
p5485
aS'1299'
p5486
aS'1239'
p5487
a(lp5488
I0
aI0
aF0.0556297833915078
aF1.0
atp5489
a((lp5490
S'53175'
p5491
aS'8167'
p5492
aS'7738'
p5493
aS'1239'
p5494
a(lp5495
I0
aI0
aI0
aF1.0
atp5496
a((lp5497
S'251'
p5498
aS'1239'
p5499
a(lp5500
I0
aF1.0
atp5501
a((lp5502
S'6067'
p5503
aS'6453'
p5504
aS'1239'
p5505
a(lp5506
I0
aF3.42299116400288e-06
aF1.0
atp5507
a((lp5508
S'1299'
p5509
aS'1239'
p5510
a(lp5511
F0.0556297833915078
aF1.0
atp5512
a((lp5513
S'25160'
p5514
aS'1299'
p5515
aS'1239'
p5516
a(lp5517
I0
aF0.0556297833915078
aF1.0
atp5518
a((lp5519
S'202109'
p5520
aS'1299'
p5521
aS'1239'
p5522
a(lp5523
I0
aF0.0556297833915078
aF1.0
atp5524
a((lp5525
S'15435'
p5526
aS'286'
p5527
aS'1239'
p5528
a(lp5529
I0
aI0
aF1.0
atp5530
a((lp5531
S'15605'
p5532
aS'3257'
p5533
aS'1239'
p5534
a(lp5535
I0
aF0.0195703380954512
aF1.0
atp5536
a((lp5537
S'22652'
p5538
aS'6453'
p5539
aS'1239'
p5540
a(lp5541
I0
aF3.42299116400288e-06
aF1.0
atp5542
a((lp5543
S'3549'
p5544
aS'1239'
p5545
a(lp5546
I0
aF1.0
atp5547
asssS'features'
p5548
g4
(g5
(g9
(I0
I0
I2
I83
S't\x00\x00d\x01\x00\x84\x00\x00\x83\x01\x00S'
p5549
(Ng9
(I0
I0
I1
I83
S'd\x00\x00S'
p5550
(Ntp5551
(S'None'
p5552
tp5553
(tS'/home/shicho/projects/bgp_classifier/classification/features.py'
p5554
S'<lambda>'
p5555
I31
g18
(t(ttp5556
Rp5557
tp5558
(g22
tp5559
(tS'/home/shicho/projects/bgp_classifier/classification/features.py'
p5560
g5555
I31
g18
(t(ttp5561
Rp5562
cfeatures
__dict__
g5555
NN(dp5563
tp5564
Rp5565
tp5566
Rp5567
S'95.128.184.0/22'
p5568
g4
(g5
(g5557
cfeatures
__dict__
g5555
NN(dp5569
tp5570
Rp5571
tp5572
Rp5573
S'propagation'
p5574
F0.7659574468085106
sS'edit_distance'
p5575
(dp5576
S'pfx'
p5577
g4
(g5
(g9
(I0
I0
I2
I83
S't\x00\x00d\x01\x00\x84\x00\x00\x83\x01\x00S'
p5578
(Ng9
(I0
I0
I1
I83
S't\x00\x00\x83\x00\x00S'
p5579
(Ntp5580
(g14
tp5581
(tS'/home/shicho/projects/bgp_classifier/classification/features.py'
p5582
S'<lambda>'
p5583
I753
S''
p5584
(t(ttp5585
Rp5586
tp5587
(g22
tp5588
(tS'/home/shicho/projects/bgp_classifier/classification/features.py'
p5589
g5583
I753
S''
p5590
(t(ttp5591
Rp5592
cfeatures
__dict__
g5583
NN(dp5593
tp5594
Rp5595
tp5596
Rp5597
g5568
g4
(g5
(g5586
cfeatures
__dict__
g5583
NN(dp5598
tp5599
Rp5600
tp5601
Rp5602
I4
(lp5603
S'205.167.184.0/23'
p5604
asI5
(lp5605
S'69.24.18.0/24'
p5606
aS'203.185.184.0/22'
p5607
aS'23.48.154.0/23'
p5608
aS'184.28.182.0/24'
p5609
aS'23.61.184.0/21'
p5610
aS'23.199.144.0/20'
p5611
aS'65.168.0.0/14'
p5612
aS'23.192.124.0/24'
p5613
aS'23.199.84.0/22'
p5614
aS'198.160.144.0/24'
p5615
aS'198.201.84.0/24'
p5616
aS'184.24.184.0/21'
p5617
aS'23.60.184.0/21'
p5618
aS'65.173.24.0/24'
p5619
aS'65.163.176.0/23'
p5620
aS'152.125.125.0/24'
p5621
aS'65.171.167.0/24'
p5622
aS'172.225.184.0/21'
p5623
aS'192.68.180.0/24'
p5624
aS'192.70.184.0/24'
p5625
aS'23.59.184.0/22'
p5626
aS'184.28.183.0/24'
p5627
aS'205.159.154.0/24'
p5628
aS'192.133.18.0/24'
p5629
asI6
(lp5630
S'198.201.86.0/24'
p5631
aS'23.199.88.0/22'
p5632
aS'12.195.4.0/24'
p5633
aS'96.6.136.0/21'
p5634
aS'169.128.236.0/23'
p5635
aS'199.191.64.0/24'
p5636
aS'217.118.224.0/20'
p5637
aS'23.199.128.0/20'
p5638
aS'23.13.88.0/21'
p5639
aS'198.62.78.0/24'
p5640
aS'65.174.0.0/16'
p5641
aS'192.208.1.0/24'
p5642
aS'198.235.14.0/24'
p5643
aS'198.22.12.0/24'
p5644
aS'192.208.4.0/22'
p5645
aS'165.1.160.0/24'
p5646
aS'165.1.159.0/24'
p5647
aS'155.193.244.0/24'
p5648
aS'23.215.88.0/21'
p5649
aS'198.201.85.0/24'
p5650
aS'74.117.165.0/24'
p5651
aS'23.193.64.0/21'
p5652
aS'63.168.61.0/24'
p5653
aS'23.193.88.0/21'
p5654
aS'173.223.14.0/23'
p5655
aS'147.182.150.0/24'
p5656
aS'192.159.86.0/24'
p5657
aS'192.55.180.0/24'
p5658
aS'23.212.88.0/21'
p5659
aS'96.7.64.0/20'
p5660
aS'23.212.101.0/24'
p5661
aS'69.24.24.0/24'
p5662
aS'23.193.54.0/23'
p5663
aS'205.161.113.0/24'
p5664
aS'198.212.44.0/24'
p5665
aS'23.61.124.0/23'
p5666
aS'23.215.80.0/21'
p5667
aS'69.24.17.0/24'
p5668
aS'192.208.8.0/24'
p5669
aS'70.12.0.0/15'
p5670
aS'63.162.234.0/24'
p5671
aS'172.226.104.0/23'
p5672
aS'23.199.38.0/23'
p5673
aS'216.163.144.0/23'
p5674
aS'74.117.166.0/24'
p5675
aS'23.199.112.0/20'
p5676
aS'23.60.148.0/23'
p5677
aS'199.161.125.0/24'
p5678
aS'23.192.125.0/24'
p5679
aS'23.215.64.0/21'
p5680
aS'23.212.98.0/23'
p5681
aS'23.212.100.0/24'
p5682
aS'204.152.104.0/24'
p5683
aS'23.48.152.0/23'
p5684
aS'24.72.171.0/24'
p5685
aS'96.6.128.0/21'
p5686
aS'23.215.54.0/24'
p5687
aS'198.182.55.0/24'
p5688
aS'172.226.144.0/21'
p5689
aS'23.206.144.0/21'
p5690
aS'23.204.144.0/23'
p5691
aS'198.22.11.0/24'
p5692
aS'69.24.16.0/24'
p5693
aS'23.212.64.0/21'
p5694
aS'198.62.147.0/24'
p5695
aS'194.133.17.0/24'
p5696
aS'192.88.125.0/24'
p5697
aS'69.24.19.0/24'
p5698
aS'23.212.80.0/21'
p5699
aS'172.225.174.0/24'
p5700
aS'192.173.8.0/24'
p5701
aS'192.173.12.0/24'
p5702
aS'65.170.39.0/25'
p5703
aS'82.195.160.0/19'
p5704
aS'23.206.144.0/20'
p5705
aS'65.172.0.0/15'
p5706
aS'173.128.0.0/12'
p5707
aS'23.13.80.0/21'
p5708
aS'205.143.74.0/23'
p5709
aS'65.160.0.0/13'
p5710
aS'198.133.149.0/24'
p5711
aS'23.193.80.0/21'
p5712
aS'199.125.0.0/21'
p5713
aS'159.140.117.0/24'
p5714
aS'23.215.58.0/23'
p5715
aS'89.191.192.0/19'
p5716
aS'96.7.160.0/20'
p5717
aS'192.208.11.0/24'
p5718
aS'63.164.138.0/23'
p5719
asI7
(lp5720
S'141.160.24.0/24'
p5721
aS'148.109.58.0/24'
p5722
aS'170.199.87.0/24'
p5723
aS'120.138.32.0/19'
p5724
aS'199.207.64.0/23'
p5725
aS'23.7.8.0/21'
p5726
aS'172.225.175.0/24'
p5727
aS'23.61.168.0/21'
p5728
aS'206.228.0.0/14'
p5729
aS'192.55.157.0/24'
p5730
aS'63.160.0.0/12'
p5731
aS'204.17.132.0/24'
p5732
aS'172.225.162.0/24'
p5733
aS'23.204.98.0/24'
p5734
aS'204.118.0.0/15'
p5735
aS'80.77.64.0/20'
p5736
aS'172.229.120.0/21'
p5737
aS'172.229.102.0/23'
p5738
aS'192.208.9.0/24'
p5739
aS'23.60.160.0/21'
p5740
aS'194.32.209.0/24'
p5741
aS'192.159.76.0/24'
p5742
aS'198.32.6.0/24'
p5743
aS'205.175.239.0/24'
p5744
aS'64.133.0.0/16'
p5745
aS'23.193.52.0/23'
p5746
aS'168.123.0.0/16'
p5747
aS'198.186.3.0/24'
p5748
aS'143.186.133.0/24'
p5749
aS'204.62.8.0/23'
p5750
aS'69.24.22.0/24'
p5751
aS'23.61.160.0/21'
p5752
aS'184.51.84.0/23'
p5753
aS'76.9.159.0/24'
p5754
aS'64.13.51.0/24'
p5755
aS'198.96.161.0/24'
p5756
aS'69.24.23.0/24'
p5757
aS'23.50.8.0/22'
p5758
aS'23.50.8.0/21'
p5759
aS'198.68.0.0/15'
p5760
aS'172.226.160.0/21'
p5761
aS'135.109.63.0/24'
p5762
aS'192.55.172.0/24'
p5763
aS'147.182.201.0/24'
p5764
aS'184.26.156.0/23'
p5765
aS'23.13.216.0/22'
p5766
aS'23.56.48.0/21'
p5767
aS'143.186.16.0/24'
p5768
aS'198.235.13.0/24'
p5769
aS'173.223.12.0/23'
p5770
aS'64.13.73.0/24'
p5771
aS'192.55.159.0/24'
p5772
aS'69.24.20.0/24'
p5773
aS'205.175.206.0/24'
p5774
aS'192.111.219.0/24'
p5775
aS'23.215.72.0/21'
p5776
aS'172.225.196.0/22'
p5777
aS'161.195.129.0/24'
p5778
aS'70.8.0.0/14'
p5779
aS'204.152.168.0/21'
p5780
aS'207.12.0.0/14'
p5781
aS'23.61.126.0/23'
p5782
aS'23.60.150.0/23'
p5783
aS'69.87.113.0/24'
p5784
aS'207.52.156.0/24'
p5785
aS'96.7.52.0/23'
p5786
aS'23.199.36.0/23'
p5787
aS'172.226.168.0/21'
p5788
aS'192.149.202.0/24'
p5789
aS'206.255.144.0/21'
p5790
aS'143.186.120.0/24'
p5791
aS'85.237.96.0/19'
p5792
aS'206.230.84.0/26'
p5793
aS'23.204.128.0/21'
p5794
aS'23.206.118.0/23'
p5795
aS'23.206.118.0/24'
p5796
aS'172.229.136.0/21'
p5797
aS'143.186.119.0/24'
p5798
aS'172.229.112.0/21'
p5799
aS'63.134.0.0/17'
p5800
aS'184.24.176.0/21'
p5801
aS'23.193.72.0/21'
p5802
aS'198.135.242.0/24'
p5803
aS'64.13.72.0/24'
p5804
aS'23.212.72.0/21'
p5805
aS'216.116.16.0/20'
p5806
aS'23.212.96.0/23'
p5807
aS'172.226.106.0/23'
p5808
aS'69.24.21.0/24'
p5809
aS'198.181.219.0/24'
p5810
aS'192.173.9.0/24'
p5811
aS'198.151.255.0/24'
p5812
aS'23.56.176.0/20'
p5813
aS'204.238.112.0/24'
p5814
aS'192.70.176.0/24'
p5815
aS'172.225.163.0/24'
p5816
aS'192.94.123.0/24'
p5817
aS'203.98.192.0/19'
p5818
aS'99.200.0.0/13'
p5819
aS'170.199.248.0/24'
p5820
aS'23.61.176.0/21'
p5821
aS'204.16.28.0/24'
p5822
aS'152.75.88.0/24'
p5823
aS'192.208.2.0/23'
p5824
aS'192.206.19.0/24'
p5825
aS'23.50.4.0/22'
p5826
aS'192.111.221.0/24'
p5827
aS'205.160.0.0/14'
p5828
aS'207.182.200.0/24'
p5829
aS'69.24.25.0/24'
p5830
aS'217.147.128.0/20'
p5831
aS'23.49.58.0/24'
p5832
aS'144.190.128.0/19'
p5833
aS'152.75.89.0/24'
p5834
aS'206.158.0.0/15'
p5835
aS'207.52.64.0/24'
p5836
aS'69.24.26.0/24'
p5837
aS'170.189.204.0/24'
p5838
aS'172.226.152.0/21'
p5839
aS'172.229.100.0/23'
p5840
aS'70.14.0.0/16'
p5841
aS'151.214.96.0/24'
p5842
aS'204.217.244.0/24'
p5843
aS'192.147.7.0/24'
p5844
aS'23.206.119.0/24'
p5845
aS'205.143.72.0/24'
p5846
aS'23.60.176.0/21'
p5847
aS'23.215.55.0/24'
p5848
aS'23.61.192.0/24'
p5849
aS'23.206.122.0/23'
p5850
aS'184.26.158.0/23'
p5851
aS'172.229.128.0/21'
p5852
aS'46.17.32.0/21'
p5853
aS'173.148.0.0/15'
p5854
aS'172.225.176.0/21'
p5855
aS'144.228.0.0/16'
p5856
aS'23.199.96.0/20'
p5857
aS'198.232.8.0/21'
p5858
aS'172.225.192.0/22'
p5859
aS'23.61.193.0/24'
p5860
aS'23.204.136.0/21'
p5861
aS'69.24.31.0/24'
p5862
aS'23.206.136.0/21'
p5863
aS'204.120.0.0/16'
p5864
aS'63.176.0.0/12'
p5865
aS'80.66.128.0/20'
p5866
aS'23.204.112.0/21'
p5867
aS'23.204.120.0/21'
p5868
aS'23.50.44.0/22'
p5869
aS'23.206.120.0/22'
p5870
aS'23.206.120.0/23'
p5871
aS'64.40.224.0/24'
p5872
aS'69.24.27.0/24'
p5873
aS'68.24.0.0/13'
p5874
aS'23.204.146.0/23'
p5875
aS'199.207.224.0/19'
p5876
aS'203.222.160.0/19'
p5877
aS'23.50.12.0/22'
p5878
aS'23.60.168.0/21'
p5879
aS'199.191.65.0/24'
p5880
aS'23.215.56.0/23'
p5881
aS'23.206.128.0/20'
p5882
aS'23.206.128.0/21'
p5883
aS'199.207.224.0/20'
p5884
aS'192.55.160.0/24'
p5885
aS'23.206.152.0/21'
p5886
asI8
(lp5887
S'204.212.0.0/14'
p5888
aS'205.246.30.0/24'
p5889
aS'198.67.0.0/16'
p5890
aS'198.67.0.0/17'
p5891
aS'206.255.132.0/22'
p5892
aS'146.243.120.0/24'
p5893
aS'23.56.40.0/21'
p5894
aS'173.246.116.0/22'
p5895
aS'198.70.0.0/16'
p5896
aS'204.8.200.0/22'
p5897
aS'23.50.40.0/22'
p5898
aS'23.50.40.0/21'
p5899
aS'206.223.51.0/24'
p5900
aS'23.56.56.0/21'
p5901
aS'184.27.222.0/24'
p5902
aS'199.0.235.0/24'
p5903
aS'173.246.112.0/22'
p5904
aS'184.27.223.0/24'
p5905
aS'23.7.0.0/21'
p5906
aS'208.199.76.0/22'
p5907
aS'217.151.240.0/20'
p5908
aS'208.49.170.0/23'
p5909
aS'184.51.86.0/23'
p5910
aS'80.77.96.0/20'
p5911
aS'203.31.120.0/24'
p5912
aS'174.144.0.0/12'
p5913
aS'172.229.52.0/24'
p5914
aS'80.93.0.0/20'
p5915
aS'204.248.0.0/14'
p5916
aS'172.225.200.0/23'
p5917
aS'208.0.1.0/25'
p5918
aS'172.229.53.0/24'
p5919
aS'170.199.0.0/16'
p5920
aS'23.49.62.0/23'
p5921
aS'199.207.253.0/24'
p5922
aS'170.199.238.0/24'
p5923
aS'184.26.61.0/24'
p5924
aS'216.203.107.0/24'
p5925
aS'204.180.0.0/14'
p5926
aS'157.245.72.0/24'
p5927
aS'143.186.0.0/16'
p5928
aS'152.75.243.0/24'
p5929
aS'64.40.227.0/24'
p5930
aS'23.60.71.0/24'
p5931
aS'184.26.60.0/24'
p5932
aS'208.65.58.0/24'
p5933
aS'217.147.96.0/20'
p5934
aS'72.56.0.0/13'
p5935
aS'172.225.210.0/23'
p5936
aS'64.40.225.0/24'
p5937
aS'199.245.231.0/24'
p5938
aS'203.57.126.0/23'
p5939
aS'206.255.136.0/21'
p5940
aS'204.95.24.0/23'
p5941
aS'206.134.0.0/16'
p5942
aS'147.1.66.0/23'
p5943
aS'204.62.7.0/24'
p5944
aS'155.63.71.0/24'
p5945
aS'23.56.60.0/22'
p5946
aS'66.247.0.0/16'
p5947
aS'217.149.32.0/20'
p5948
aS'23.49.59.0/24'
p5949
aS'172.225.208.0/23'
p5950
aS'216.203.108.0/24'
p5951
aS'170.199.239.0/24'
p5952
aS'172.225.202.0/23'
p5953
aS'70.0.0.0/13'
p5954
aS'170.189.200.0/24'
p5955
aS'173.144.0.0/14'
p5956
aS'172.231.204.0/22'
p5957
aS'203.222.32.0/19'
p5958
aS'68.240.0.0/13'
p5959
aS'206.255.152.0/22'
p5960
aS'192.207.220.0/24'
p5961
aS'160.81.0.0/16'
p5962
aS'204.241.122.0/24'
p5963
aS'207.143.0.0/16'
p5964
aS'152.75.90.0/24'
p5965
aS'23.59.240.0/20'
p5966
aS'63.165.136.208/28'
p5967
aS'157.245.70.0/24'
p5968
aS'149.117.7.0/24'
p5969
aS'206.133.0.0/16'
p5970
aS'23.50.32.0/21'
p5971
aS'23.56.56.0/22'
p5972
aS'149.117.2.0/24'
p5973
aS'149.117.30.0/24'
p5974
aS'173.4.0.0/14'
p5975
aS'204.117.0.0/16'
p5976
aS'216.203.127.0/24'
p5977
aS'206.160.0.0/16'
p5978
aS'207.90.4.0/24'
p5979
aS'216.9.120.0/22'
p5980
aS'23.50.36.0/22'
p5981
aS'168.229.0.0/16'
p5982
aS'213.206.128.0/19'
p5983
aS'23.56.52.0/22'
p5984
aS'23.204.99.0/24'
p5985
aS'199.0.0.0/14'
p5986
aS'208.199.72.0/22'
p5987
aS'144.224.0.0/16'
p5988
aS'23.60.70.0/24'
p5989
aS'64.40.226.0/24'
p5990
aS'204.154.228.0/24'
p5991
aS'173.246.120.0/22'
p5992
aS'144.223.0.0/16'
p5993
aS'206.104.0.0/14'
p5994
aS'198.47.66.0/24'
p5995
aS'23.50.0.0/21'
p5996
aS'208.32.0.0/14'
p5997
aS'172.231.152.0/23'
p5998
aS'208.0.0.0/11'
p5999
aS'204.62.3.0/24'
p6000
aS'199.207.240.0/20'
p6001
aS'162.27.39.0/24'
p6002
aS'23.56.32.0/21'
p6003
aS'172.232.16.0/20'
p6004
aS'204.180.72.0/25'
p6005
aS'208.0.2.0/24'
p6006
aS'205.240.0.0/13'
p6007
aS'208.0.3.0/24'
p6008
asI9
(lp6009
S'203.56.235.0/24'
p6010
aS'206.61.0.0/16'
p6011
aS'206.255.251.0/24'
p6012
aS'216.203.96.0/24'
p6013
aS'204.96.0.0/15'
p6014
aS'63.165.136.192/28'
p6015
aS'173.240.221.0/24'
p6016
aS'207.40.0.0/14'
p6017
aS'204.95.52.0/22'
p6018
aS'172.232.32.0/20'
p6019
aS'208.73.230.0/24'
p6020
aS'208.73.231.0/24'
p6021
aS'168.86.252.0/24'
p6022
aS'206.255.232.0/22'
p6023
aS'206.255.219.0/24'
p6024
aS'208.34.250.0/24'
p6025
aS'206.255.242.0/24'
p6026
aS'204.94.0.0/15'
p6027
aS'144.232.0.0/16'
p6028
aS'204.89.223.0/24'
p6029
aS'170.200.67.0/24'
p6030
aS'208.73.228.0/24'
p6031
aS'173.96.0.0/11'
p6032
aS'208.73.229.0/24'
p6033
aS'89.191.218.224/27'
p6034
asI10
(lp6035
S'206.104.149.128/25'
p6036
aS'208.32.163.128/26'
p6037
aS'208.28.35.128/25'
p6038
aS'2a02:bf8::/32'
p6039
aS'208.0.1.128/25'
p6040
asI11
(lp6041
S'208.16.76.128/26'
p6042
aS'2800:3e0::/32'
p6043
aS'206.230.179.192/26'
p6044
aS'2600::/29'
p6045
asI12
(lp6046
S'2620:9f:11::/48'
p6047
aS'2620:3f:8000::/48'
p6048
aS'2403:a800::/32'
p6049
asI13
(lp6050
S'2650:2100:fc::10/128'
p6051
aS'2600:2:d80:3::/64'
p6052
aS'2600:3:500:4::/64'
p6053
aS'2001:1900::4:18/128'
p6054
asI14
(lp6055
S'2001:5000::12:1/128'
p6056
aS'2600:3:500:6::/64'
p6057
aS'2600:5:3d40:3::/64'
p6058
asI17
(lp6059
S'2800:620:0:ffff::1/128'
p6060
asssS'asn'
p6061
g4
(g5
(g9
(I0
I0
I2
I83
S't\x00\x00d\x01\x00\x84\x00\x00\x83\x01\x00S'
p6062
(Ng9
(I0
I0
I1
I83
S'd\x00\x00S'
p6063
(Ntp6064
(g5552
tp6065
(tS'/home/shicho/projects/bgp_classifier/classification/features.py'
p6066
g5583
I746
S''
p6067
(t(ttp6068
Rp6069
tp6070
(g22
tp6071
(tS'/home/shicho/projects/bgp_classifier/classification/features.py'
p6072
g5583
I746
S''
p6073
(t(ttp6074
Rp6075
cfeatures
__dict__
g5583
NN(dp6076
tp6077
Rp6078
tp6079
Rp6080
S'1239'
p6081
g4
(g5
(g6069
cfeatures
__dict__
g5583
NN(dp6082
tp6083
Rp6084
tp6085
Rp6086
S'34547'
p6087
I5
ssssS'rarity'
p6088
(dp6089
S'anon_paths'
p6090
g4
(g5
(g9
(I0
I0
I2
I83
S't\x00\x00d\x01\x00\x84\x00\x00\x83\x01\x00S'
p6091
(Ng9
(I0
I0
I2
I83
S't\x00\x00d\x01\x00\x84\x00\x00\x83\x01\x00S'
p6092
(Ng9
(I0
I0
I2
I83
S't\x00\x00d\x01\x00\x84\x00\x00\x83\x01\x00S'
p6093
(Ng9
(I0
I0
I1
I83
S'd\x01\x00S'
p6094
(NI0
tp6095
(t(tS'/home/shicho/projects/bgp_classifier/classification/features.py'
p6096
g5583
I430
S''
p6097
(t(ttp6098
Rp6099
tp6100
(g22
tp6101
(tS'/home/shicho/projects/bgp_classifier/classification/features.py'
p6102
g5583
I429
S'\x00\x01'
p6103
(t(ttp6104
Rp6105
tp6106
(g22
tp6107
(tS'/home/shicho/projects/bgp_classifier/classification/features.py'
p6108
g5583
I429
S''
p6109
(t(ttp6110
Rp6111
tp6112
(g22
tp6113
(tS'/home/shicho/projects/bgp_classifier/classification/features.py'
p6114
g5583
I429
S''
p6115
(t(ttp6116
Rp6117
cfeatures
__dict__
g5583
NN(dp6118
tp6119
Rp6120
tp6121
Rp6122
sS'depth'
p6123
g4
(g5
(g9
(I0
I0
I1
I83
S't\x00\x00\x83\x00\x00S'
p6124
(Ntp6125
(g14
tp6126
(tS'/home/shicho/projects/bgp_classifier/classification/features.py'
p6127
g5583
I427
S''
p6128
(t(ttp6129
Rp6130
cfeatures
__dict__
g5583
NN(dp6131
tp6132
Rp6133
tp6134
Rp6135
g4736
(lp6136
ssS'hijacker_score'
p6137
g4
(g5
(g9
(I0
I0
I2
I83
S't\x00\x00d\x01\x00\x84\x00\x00\x83\x01\x00S'
p6138
(Ng9
(I0
I0
I1
I83
S't\x00\x00\x83\x00\x00S'
p6139
(Ntp6140
(S'set'
p6141
tp6142
(tS'/home/shicho/projects/bgp_classifier/classification/features.py'
p6143
g5583
I431
S''
p6144
(t(ttp6145
Rp6146
tp6147
(g22
tp6148
(tS'/home/shicho/projects/bgp_classifier/classification/features.py'
p6149
g5583
I431
S''
p6150
(t(ttp6151
Rp6152
cfeatures
__dict__
g5583
NN(dp6153
tp6154
Rp6155
tp6156
Rp6157
g4736
g4
(g5
(g6146
cfeatures
__dict__
g5583
NN(dp6158
tp6159
Rp6160
tp6161
Rp6162
g6081
c__builtin__
set
p6163
((lp6164
F1.0
atp6165
Rp6166
sssS'freq'
p6167
g4
(g5
(g9
(I0
I0
I2
I83
S't\x00\x00d\x01\x00\x84\x00\x00\x83\x01\x00S'
p6168
(Ng9
(I0
I0
I2
I83
S't\x00\x00d\x01\x00\x84\x00\x00\x83\x01\x00S'
p6169
(Ng9
(I0
I0
I1
I83
S'd\x01\x00S'
p6170
(NI0
tp6171
(t(tS'/home/shicho/projects/bgp_classifier/classification/features.py'
p6172
g5583
I428
S''
p6173
(t(ttp6174
Rp6175
tp6176
(g22
tp6177
(tS'/home/shicho/projects/bgp_classifier/classification/features.py'
p6178
g5583
I428
S''
p6179
(t(ttp6180
Rp6181
tp6182
(g22
tp6183
(tS'/home/shicho/projects/bgp_classifier/classification/features.py'
p6184
g5583
I428
S''
p6185
(t(ttp6186
Rp6187
cfeatures
__dict__
g5583
NN(dp6188
tp6189
Rp6190
tp6191
Rp6192
g4736
g4
(g5
(g6181
cfeatures
__dict__
g5583
NN(dp6193
tp6194
Rp6195
tp6196
Rp6197
S'hijacked'
p6198
g4
(g5
(g6175
cfeatures
__dict__
g5583
NN(dp6199
tp6200
Rp6201
tp6202
Rp6203
I0
I128
ssssS'sum_up'
p6204
(dp6205
g6198
(lp6206
F0.0195703380955
aF0.0
aF0.0
aF0.0
aF0.0556297833915
aF0.0
aF0.0
aF0.0556297833915
aF0.0
aF0.0
aF0.0
aF0.0
aF0.0195703380955
aF3.422991164e-06
aF0.0556297833915
aF0.0556297833915
aF0.0195703380955
aF0.0
aF0.0195703380955
aF0.0556297833915
aF0.0
aF0.0
aF0.0
aF0.0556297833915
aF0.0556297833915
aF0.0195703380955
aF0.0556297833915
aF0.0556297833915
aF0.0556297833915
aF0.0
aF0.0
aF0.0195703380955
aF0.0
aF0.0
aF0.0556297833915
aF0.0
aF0.0
aF0.0556297833915
aF0.0
aF3.422991164e-06
aF0.0556297833915
aF0.0
aF0.0556297833915
aF0.0
aF0.0195703380955
aF0.0195703380955
aF0.0556297833915
aF0.0195703380955
aF0.0
aF0.0195703380955
aF0.0
aF0.0
aF0.0556297833915
aF0.0195703380955
aF0.0
aF0.0
aF0.0
aF0.0195703380955
aF0.0195703380955
aF0.0556297833915
aF0.0195703380955
aF3.422991164e-06
aF3.422991164e-06
aF0.0
aF0.0
aF0.0
aF0.0
aF0.0195703380955
aF0.0556297833915
aF0.0
aF0.0195703380955
aF0.0556297833915
aF3.422991164e-06
aF0.0
aF0.0
aF0.0556297833915
aF0.0195703380955
aF0.0195703380955
aF0.0
aF3.422991164e-06
aF3.422991164e-06
aF0.0
aF0.0
aF0.0
aF0.0556297833915
aF0.0556297833915
aF0.0
aF3.422991164e-06
aF0.0
aF0.0
aF0.0195703380955
aF0.0
aF0.0
aF0.0195703380955
aF0.0
aF0.0
aF0.0556297833915
aF3.422991164e-06
aF0.0195703380955
aF0.0556297833915
aF0.0
aF0.0195703380955
aF0.0556297833915
aF0.0
asssS'submoas'
p6207
(dp6208
S'is_multi'
p6209
I0
ssS'rarity_new'
p6210
(dp6211
S'union'
p6212
(dp6213
S'34547'
p6214
F0.5
sS'1239'
p6215
F0.2
ssS'cosin'
p6216
(dp6217
g6214
cnumpy.core.multiarray
scalar
p6218
(cnumpy
dtype
p6219
(S'f8'
p6220
I0
I1
tp6221
Rp6222
(I3
S'<'
p6223
NNNI-1
I-1
I0
tp6224
bS'\x18\xc2Op:Y\xe8?'
p6225
tp6226
Rp6227
sg6215
g6218
(g6222
S'\xaatb\r\x88;\xe7?'
p6228
tp6229
Rp6230
sssS'num_of_valleys'
p6231
(dp6232
S'anon_ases'
p6233
g4
(g5
(g9
(I0
I0
I2
I83
S't\x00\x00d\x01\x00\x84\x00\x00\x83\x01\x00S'
p6234
(Ng9
(I0
I0
I2
I83
S't\x00\x00d\x01\x00\x84\x00\x00\x83\x01\x00S'
p6235
(Ng9
(I0
I0
I2
I83
S't\x00\x00d\x01\x00\x84\x00\x00\x83\x01\x00S'
p6236
(Ng9
(I0
I0
I1
I83
S'd\x01\x00S'
p6237
(NI0
tp6238
(t(tS'/home/shicho/projects/bgp_classifier/classification/features.py'
p6239
g5583
I367
S''
p6240
(t(ttp6241
Rp6242
tp6243
(g22
tp6244
(tS'/home/shicho/projects/bgp_classifier/classification/features.py'
p6245
g5583
I367
S''
p6246
(t(ttp6247
Rp6248
tp6249
(g22
tp6250
(tS'/home/shicho/projects/bgp_classifier/classification/features.py'
p6251
g5583
I366
S'\x03\x01'
p6252
(t(ttp6253
Rp6254
tp6255
(g22
tp6256
(tS'/home/shicho/projects/bgp_classifier/classification/features.py'
p6257
g5583
I366
S''
p6258
(t(ttp6259
Rp6260
cfeatures
__dict__
g5583
NN(dp6261
tp6262
Rp6263
tp6264
Rp6265
sg6123
(lp6266
F0.6950804137236992
asg6167
g4
(g5
(g9
(I0
I0
I2
I83
S't\x00\x00d\x01\x00\x84\x00\x00\x83\x01\x00S'
p6267
(Ng9
(I0
I0
I1
I83
S'd\x01\x00S'
p6268
(NI0
tp6269
(t(tS'/home/shicho/projects/bgp_classifier/classification/features.py'
p6270
g5583
I365
S''
p6271
(t(ttp6272
Rp6273
tp6274
(g22
tp6275
(tS'/home/shicho/projects/bgp_classifier/classification/features.py'
p6276
g5583
I365
S''
p6277
(t(ttp6278
Rp6279
cfeatures
__dict__
g5583
NN(dp6280
tp6281
Rp6282
tp6283
Rp6284
g6198
g4
(g5
(g6273
cfeatures
__dict__
g5583
NN(dp6285
tp6286
Rp6287
tp6288
Rp6289
I0
I129
ssS'normal'
p6290
g4
(g5
(g6273
cfeatures
__dict__
g5583
NN(dp6291
tp6292
Rp6293
tp6294
Rp6295
I0
I99
ssssS'prepending'
p6296
F0.0
sS'moas'
p6297
(dp6298
S'duration'
p6299
F-19680.316666666666
sg6209
I1
sS'prop'
p6300
F0.7692307692307693
ssssS'verification'
p6301
(dp6302
S'hijacker_in_the_middle'
p6303
I01
sS'innocent_as_in_the_middle'
p6304
I00
sS'hijacker_as_origin_as'
p6305
I01
sS'innocent_as_as_origin_as'
p6306
I00
sS'all_paths_with_hijacker'
p6307
(dp6308
g6081
(lp6309
(lp6310
S'1239'
p6311
aS'2914'
p6312
aS'5603'
p6313
aS'34547'
p6314
aassS'hege_score'
p6315
(dp6316
S'34547'
p6317
(dp6318
S'web'
p6319
(dp6320
S'3356'
p6321
F0.455729166666667
sS'2914'
p6322
F0.322048611111111
sS'5603'
p6323
F1.0
ssS'loc'
p6324
(dp6325
S'2914'
p6326
F1.0
sS'1239'
p6327
F1.0
sS'5603'
p6328
F1.0
sssS'1239'
p6329
(dp6330
g6319
(dp6331
S'2914'
p6332
F0.062767525924706
sS'3257'
p6333
F0.0195704365020665
sS'6453'
p6334
F3.42331397754738e-06
sS'3356'
p6335
F0.0337753961896734
sS'174'
p6336
F0.0191564268025865
sS'1299'
p6337
F0.0556298687693314
ssg6324
(dp6338
S'6939'
p6339
F0.015841584158415842
sS'1299'
p6340
F0.12871287128712872
sS'3257'
p6341
F0.09735973597359734
sssssS'innocent_as'
p6342
g18
sS'pfxes_of_hijacker'
p6343
(dp6344
S'61239'
p6345
(lp6346
S'185.12.102.0/24'
p6347
aS'185.12.101.0/24'
p6348
asS'1239'
p6349
(lp6350
g5888
ag5889
ag5606
ag5721
ag5722
ag5631
ag5890
ag5891
ag5632
ag5633
ag5634
ag5723
ag5892
ag5893
ag5724
ag5725
ag5894
ag5895
ag5635
ag5726
ag5896
ag5727
ag5728
ag5729
ag5730
ag5897
ag5731
ag5636
ag5732
ag5898
ag5899
ag5733
ag5637
ag5900
ag5638
ag5639
ag5640
ag5901
ag5734
ag5735
ag6010
ag5902
ag5736
ag5903
ag5607
ag5904
ag5641
ag5737
ag5905
ag5642
ag5906
ag5738
ag5907
ag6011
ag5643
ag5908
ag5739
ag5740
ag5909
ag5644
ag5608
ag5741
ag5742
ag5743
ag6042
ag5744
ag6012
ag5745
ag5746
ag5910
ag5609
ag5747
ag5911
ag5912
ag5748
ag5749
ag5913
ag5645
ag5610
ag5914
ag5750
ag6056
ag5915
ag5751
ag5916
ag5611
ag5752
ag5753
ag5646
ag5917
ag5754
ag5755
ag6013
ag5756
ag5757
ag5918
ag5647
ag6057
ag5758
ag5759
ag5760
ag5919
ag5761
ag6014
ag5920
ag5762
ag5612
ag5921
ag5763
ag5764
ag5648
ag5649
ag5650
ag5765
ag5922
ag5651
ag5923
ag5766
ag5652
ag5924
ag5767
ag5768
ag5925
ag5926
ag5769
ag5653
ag5654
ag5613
ag5770
ag6015
ag5771
ag5772
ag5773
ag6016
ag5614
ag5927
ag5655
ag5928
ag5656
ag5929
ag5930
ag5931
ag5657
ag5658
ag6017
ag5774
ag5775
ag5932
ag5776
ag5777
ag5659
ag6043
ag5933
ag5778
ag5660
ag5779
ag5661
ag5934
ag6018
ag5780
ag5662
ag5935
ag5936
ag5937
ag5938
ag5781
ag5939
ag5782
ag5783
ag6058
ag5784
ag5785
ag5663
ag5786
ag5940
ag5941
ag5664
ag5942
ag5787
ag5943
ag5788
ag5944
ag5665
ag5945
ag5789
ag5790
ag6036
ag5666
ag5791
ag6019
ag5792
ag5793
ag5946
ag5667
ag5947
ag5948
ag5794
ag5795
ag5796
ag5668
ag5949
ag5604
ag5797
ag5669
ag6020
ag6021
ag6022
ag5798
ag5950
ag6037
ag5670
ag5951
ag5671
ag5952
ag5615
ag5799
ag6051
ag5800
ag5801
ag5616
ag5953
ag5672
ag5802
ag5673
ag5954
ag5803
ag5804
ag5617
ag5805
ag5674
ag5806
ag6044
ag5955
ag5807
ag5808
ag5809
ag5810
ag5956
ag5957
ag5958
ag5811
ag6023
ag5675
ag5959
ag5960
ag5812
ag5961
ag5813
ag5618
ag5962
ag5676
ag5619
ag5814
ag5963
ag5815
ag5816
ag6024
ag6025
ag5677
ag5964
ag6060
ag5678
ag5679
ag5680
ag5965
ag5681
ag5620
ag5966
ag5817
ag5682
ag5967
ag5968
ag6026
ag5683
ag5818
ag6027
ag5819
ag6028
ag5969
ag5820
ag5821
ag5822
ag5823
ag5970
ag5971
ag5684
ag5824
ag5825
ag5826
ag5685
ag6029
ag5686
ag5827
ag5621
ag5828
ag5687
ag5829
ag6038
ag5830
ag5831
ag5832
ag5688
ag5689
ag5833
ag5690
ag5691
ag5972
ag5834
ag5835
ag5836
ag5692
ag5693
ag5694
ag5695
ag5973
ag5837
ag5974
ag5838
ag5696
ag5697
ag5698
ag6030
ag5699
ag5975
ag5839
ag6047
ag5840
ag5976
ag5700
ag6048
ag5701
ag6031
ag5841
ag5622
ag5842
ag5977
ag6039
ag5843
ag5978
ag5979
ag5980
ag5844
ag5702
ag5981
ag5845
ag5623
ag5982
ag6052
ag5703
ag5704
ag5846
ag5847
ag5705
ag5848
ag5849
ag5983
ag5850
ag5624
ag5851
ag5852
ag5984
ag5853
ag5854
ag5706
ag5855
ag5707
ag5985
ag5856
ag5986
ag5987
ag5857
ag6049
ag5858
ag6040
ag5859
ag5988
ag5860
ag5708
ag5861
ag5709
ag5989
ag5990
ag5862
ag5991
ag5710
ag5711
ag6032
ag5712
ag5992
ag5713
ag5993
ag5714
ag5863
ag5864
ag5715
ag5865
ag5994
ag5995
ag5866
ag5867
ag5996
ag5997
ag5998
ag5625
ag5868
ag5869
ag5870
ag5871
ag5872
ag5999
ag6053
ag6000
ag5873
ag5874
ag6033
ag5626
ag6001
ag6034
ag5875
ag5876
ag5716
ag6002
ag5627
ag6045
ag5877
ag6003
ag6004
ag5878
ag5717
ag5718
ag5628
ag5879
ag6054
ag6005
ag5880
ag5881
ag5882
ag5883
ag5719
ag6006
ag5629
ag6007
ag5884
ag5885
ag6008
ag5886
asS'21239'
p6351
(lp6352
S'2a02:6e0::/48'
p6353
aS'149.126.56.0/21'
p6354
asS'51239'
p6355
(lp6356
S'46.102.255.0/24'
p6357
asS'11239'
p6358
(lp6359
S'199.114.252.0/22'
p6360
aS'199.168.248.0/22'
p6361
asS'31239'
p6362
(lp6363
S'89.31.128.0/21'
p6364
aS'195.225.236.0/22'
p6365
aS'78.40.208.0/22'
p6366
aS'78.40.212.0/24'
p6367
assS'hijack_as'
p6368
g6081
sS'hijack_prefix'
p6369
g5568
sS'victim_as'
p6370
g6087
sS'end_time'
p6371
cdatetime
datetime
p6372
(S'\x07\xde\t\t\x0f-\x00\x00\x00\x00'
p6373
tp6374
Rp6375
s.