(dp0
S'category'
p1
S'forged_as_path'
p2
sS'as_paths'
p3
ccollections
defaultdict
p4
(cdill._dill
_create_function
p5
(cdill._dill
_load_type
p6
(S'CodeType'
p7
tp8
Rp9
(I0
I0
I2
I83
S't\x00\x00d\x01\x00\x84\x00\x00\x83\x01\x00S'
p10
(Ng9
(I0
I0
I2
I83
S't\x00\x00d\x01\x00\x84\x00\x00\x83\x01\x00S'
p11
(Ng9
(I0
I0
I1
I83
S't\x00\x00\x83\x00\x00S'
p12
(Ntp13
(S'list'
p14
tp15
(tS'/home/shicho/projects/bgp_classifier/classification/histobgpstream.py'
p16
S'<lambda>'
p17
I93
S''
p18
(t(ttp19
Rp20
tp21
(S'defaultdict'
p22
tp23
(tS'/home/shicho/projects/bgp_classifier/classification/histobgpstream.py'
p24
g17
I93
g18
(t(ttp25
Rp26
tp27
(g22
tp28
(tS'/home/shicho/projects/bgp_classifier/classification/histobgpstream.py'
p29
g17
I93
g18
(t(ttp30
Rp31
chistobgpstream
__dict__
g17
NN(dp32
tp33
Rp34
tp35
Rp36
S'route-views.jinx'
p37
g4
(g5
(g26
chistobgpstream
__dict__
g17
NN(dp38
tp39
Rp40
tp41
Rp42
S'196.223.14.55'
p43
g4
(g5
(g20
chistobgpstream
__dict__
g17
NN(dp44
tp45
Rp46
tp47
Rp48
S'186.96.128.0/18'
p49
(lp50
(I1411855063
S'updates'
p51
S'30844 60937 12389 16509 6461 1273'
p52
tp53
asssS'route-views.eqix'
p54
g4
(g5
(g26
chistobgpstream
__dict__
g17
NN(dp55
tp56
Rp57
tp58
Rp59
S'206.126.236.181'
p60
g4
(g5
(g20
chistobgpstream
__dict__
g17
NN(dp61
tp62
Rp63
tp64
Rp65
S'186.96.128.0/18'
p66
(lp67
(I1411855042
S'withdrawal'
p68
g18
tp69
assS'206.126.236.120'
p70
g4
(g5
(g20
chistobgpstream
__dict__
g17
NN(dp71
tp72
Rp73
tp74
Rp75
S'186.96.128.0/18'
p76
(lp77
(I1411855051
g51
S'41095 60937 12389 16509 6461 1273'
p78
tp79
assS'206.126.236.26'
p80
g4
(g5
(g20
chistobgpstream
__dict__
g17
NN(dp81
tp82
Rp83
tp84
Rp85
S'186.96.128.0/18'
p86
(lp87
(I1411855052
g51
S'16559 6939 60937 12389 16509 6461 1273'
p88
tp89
assS'206.126.236.37'
p90
g4
(g5
(g20
chistobgpstream
__dict__
g17
NN(dp91
tp92
Rp93
tp94
Rp95
S'186.96.128.0/18'
p96
(lp97
(I1411855038
g51
S'6939 60937 12389 16509 6461 1273'
p98
tp99
asssS'route-views2'
p100
g4
(g5
(g26
chistobgpstream
__dict__
g17
NN(dp101
tp102
Rp103
tp104
Rp105
S'95.85.0.2'
p106
g4
(g5
(g20
chistobgpstream
__dict__
g17
NN(dp107
tp108
Rp109
tp110
Rp111
S'186.96.128.0/18'
p112
(lp113
(I1411855041
g51
S'200130 60937 12389 16509 6461 1273'
p114
tp115
assS'41.217.212.5'
p116
g4
(g5
(g20
chistobgpstream
__dict__
g17
NN(dp117
tp118
Rp119
tp120
Rp121
S'186.96.128.0/18'
p122
(lp123
(I1411855059
g51
S'37100 60937 12389 16509 6461 1273'
p124
tp125
assS'198.129.33.85'
p126
g4
(g5
(g20
chistobgpstream
__dict__
g17
NN(dp127
tp128
Rp129
tp130
Rp131
S'186.96.128.0/18'
p132
(lp133
(I1411855045
g51
S'293 6939 60937 12389 16509 6461 1273'
p134
tp135
assS'216.218.252.164'
p136
g4
(g5
(g20
chistobgpstream
__dict__
g17
NN(dp137
tp138
Rp139
tp140
Rp141
S'186.96.128.0/18'
p142
(lp143
(I1411855041
g51
S'6939 60937 12389 16509 6461 1273'
p144
tp145
assS'213.144.128.203'
p146
g4
(g5
(g20
chistobgpstream
__dict__
g17
NN(dp147
tp148
Rp149
tp150
Rp151
S'186.96.128.0/18'
p152
(lp153
(I1411855041
g51
S'13030 60937 12389 16509 6461 1273'
p154
tp155
assS'5.101.110.2'
p156
g4
(g5
(g20
chistobgpstream
__dict__
g17
NN(dp157
tp158
Rp159
tp160
Rp161
S'186.96.128.0/18'
p162
(lp163
(I1411855041
g51
S'202018 60937 12389 16509 6461 1273'
p164
tp165
assS'85.114.0.217'
p166
g4
(g5
(g20
chistobgpstream
__dict__
g17
NN(dp167
tp168
Rp169
tp170
Rp171
S'186.96.128.0/18'
p172
(lp173
(I1411855041
g51
S'8492 9002 60937 12389 16509 6461 1273'
p174
tp175
assS'216.221.157.162'
p176
g4
(g5
(g20
chistobgpstream
__dict__
g17
NN(dp177
tp178
Rp179
tp180
Rp181
S'186.96.128.0/18'
p182
(lp183
(I1411855041
g51
S'40191 6939 60937 12389 16509 6461 1273'
p184
tp185
asssS'route-views3'
p186
g4
(g5
(g26
chistobgpstream
__dict__
g17
NN(dp187
tp188
Rp189
tp190
Rp191
S'216.218.252.164'
p192
g4
(g5
(g20
chistobgpstream
__dict__
g17
NN(dp193
tp194
Rp195
tp196
Rp197
S'186.96.128.0/18'
p198
(lp199
(I1411855038
g51
S'6939 60937 12389 16509 6461 1273'
p200
tp201
asssS'route-views.sydney'
p202
g4
(g5
(g26
chistobgpstream
__dict__
g17
NN(dp203
tp204
Rp205
tp206
Rp207
S'202.167.228.74'
p208
g4
(g5
(g20
chistobgpstream
__dict__
g17
NN(dp209
tp210
Rp211
tp212
Rp213
S'186.96.128.0/18'
p214
(lp215
(I1411855083
g51
S'4826 6939 60937 12389 16509 6461 1273'
p216
tp217
asssS'route-views4'
p218
g4
(g5
(g26
chistobgpstream
__dict__
g17
NN(dp219
tp220
Rp221
tp222
Rp223
S'103.247.3.30'
p224
g4
(g5
(g20
chistobgpstream
__dict__
g17
NN(dp225
tp226
Rp227
tp228
Rp229
S'186.96.128.0/18'
p230
(lp231
(I1411855048
g51
S'58511 2764 7545 6939 60937 12389 16509 6461 1273'
p232
tp233
assS'185.5.200.255'
p234
g4
(g5
(g20
chistobgpstream
__dict__
g17
NN(dp235
tp236
Rp237
tp238
Rp239
S'186.96.128.0/18'
p240
(lp241
(I1411855081
g51
S'59715 29449 15589 60937 12389 16509 6461 1273'
p242
tp243
assS'103.247.3.29'
p244
g4
(g5
(g20
chistobgpstream
__dict__
g17
NN(dp245
tp246
Rp247
tp248
Rp249
S'186.96.128.0/18'
p250
(lp251
(I1411855052
g51
S'58511 2764 7545 6939 60937 12389 16509 6461 1273'
p252
tp253
assS'103.247.3.41'
p254
g4
(g5
(g20
chistobgpstream
__dict__
g17
NN(dp255
tp256
Rp257
tp258
Rp259
S'186.96.128.0/18'
p260
(lp261
(I1411855048
g51
S'58511 2764 7545 6939 60937 12389 16509 6461 1273'
p262
tp263
assS'119.63.216.246'
p264
g4
(g5
(g20
chistobgpstream
__dict__
g17
NN(dp265
tp266
Rp267
tp268
Rp269
S'186.96.128.0/18'
p270
(lp271
(I1411855051
g51
S'38883 24130 7545 6939 60937 12389 16509 6461 1273'
p272
tp273
a(I1411855061
g68
g18
tp274
a(I1411855065
g51
S'38883 4826 6939 60937 12389 16509 6461 1273'
p275
tp276
assS'203.175.175.15'
p277
g4
(g5
(g20
chistobgpstream
__dict__
g17
NN(dp278
tp279
Rp280
tp281
Rp282
S'186.96.128.0/18'
p283
(lp284
(I1411855059
g51
S'24482 60937 12389 16509 6461 1273'
p285
tp286
assS'198.98.84.131'
p287
g4
(g5
(g20
chistobgpstream
__dict__
g17
NN(dp288
tp289
Rp290
tp291
Rp292
S'186.96.128.0/18'
p293
(lp294
(I1411855039
g51
S'19754 6939 60937 12389 16509 6461 1273'
p295
tp296
assS'194.85.40.15'
p297
g4
(g5
(g20
chistobgpstream
__dict__
g17
NN(dp298
tp299
Rp300
tp301
Rp302
S'186.96.128.0/18'
p303
(lp304
(I1411855059
g51
S'3267 60937 12389 16509 6461 1273'
p305
tp306
assS'194.71.0.1'
p307
g4
(g5
(g20
chistobgpstream
__dict__
g17
NN(dp308
tp309
Rp310
tp311
Rp312
S'186.96.128.0/18'
p313
(lp314
(I1411855081
g51
S'48285 16150 60937 12389 16509 6461 1273'
p315
tp316
assS'199.87.240.1'
p317
g4
(g5
(g20
chistobgpstream
__dict__
g17
NN(dp318
tp319
Rp320
tp321
Rp322
S'186.96.128.0/18'
p323
(lp324
(I1411855038
g51
S'22873 6939 6939 60937 12389 16509 6461 1273'
p325
tp326
assS'212.66.71.4'
p327
g4
(g5
(g20
chistobgpstream
__dict__
g17
NN(dp328
tp329
Rp330
tp331
Rp332
S'186.96.128.0/18'
p333
(lp334
(I1411855067
g51
S'48526 60937 12389 16509 6461 1273'
p335
tp336
assS'103.247.3.8'
p337
g4
(g5
(g20
chistobgpstream
__dict__
g17
NN(dp338
tp339
Rp340
tp341
Rp342
S'186.96.128.0/18'
p343
(lp344
(I1411855070
g51
S'58511 2764 7545 6939 60937 12389 16509 6461 1273'
p345
tp346
asssS'rrc11'
p347
g4
(g5
(g26
chistobgpstream
__dict__
g17
NN(dp348
tp349
Rp350
tp351
Rp352
S'198.32.160.103'
p353
g4
(g5
(g20
chistobgpstream
__dict__
g17
NN(dp354
tp355
Rp356
tp357
Rp358
S'186.96.128.0/18'
p359
(lp360
(I1411855038
g51
S'13030 60937 12389 16509 6461 1273'
p361
tp362
assS'198.32.160.182'
p363
g4
(g5
(g20
chistobgpstream
__dict__
g17
NN(dp364
tp365
Rp366
tp367
Rp368
S'186.96.128.0/18'
p369
(lp370
(I1411855038
g51
S'9002 60937 12389 16509 6461 1273'
p371
tp372
asssS'rrc10'
p373
g4
(g5
(g26
chistobgpstream
__dict__
g17
NN(dp374
tp375
Rp376
tp377
Rp378
S'217.29.66.65'
p379
g4
(g5
(g20
chistobgpstream
__dict__
g17
NN(dp380
tp381
Rp382
tp383
Rp384
S'186.96.128.0/18'
p385
(lp386
(I1411855040
g51
S'12779 60937 12389 16509 6461 1273'
p387
tp388
assS'217.29.66.86'
p389
g4
(g5
(g20
chistobgpstream
__dict__
g17
NN(dp390
tp391
Rp392
tp393
Rp394
S'186.96.128.0/18'
p395
(lp396
(I1411855067
g51
S'12637 60937 12389 16509 6461 1273'
p397
tp398
asssS'rrc13'
p399
g4
(g5
(g26
chistobgpstream
__dict__
g17
NN(dp400
tp401
Rp402
tp403
Rp404
S'193.232.244.111'
p405
g4
(g5
(g20
chistobgpstream
__dict__
g17
NN(dp406
tp407
Rp408
tp409
Rp410
S'186.96.128.0/18'
p411
(lp412
(I1411855065
g51
S'8331 39792 39792 60937 12389 16509 6461 1273'
p413
tp414
assS'193.232.244.15'
p415
g4
(g5
(g20
chistobgpstream
__dict__
g17
NN(dp416
tp417
Rp418
tp419
Rp420
S'186.96.128.0/18'
p421
(lp422
(I1411855076
g51
S'39821 28917 60937 12389 16509 6461 1273'
p423
tp424
assS'193.232.245.4'
p425
g4
(g5
(g20
chistobgpstream
__dict__
g17
NN(dp426
tp427
Rp428
tp429
Rp430
S'186.96.128.0/18'
p431
(lp432
(I1411855049
g51
S'41095 60937 12389 16509 6461 1273'
p433
tp434
assS'193.232.244.187'
p435
g4
(g5
(g20
chistobgpstream
__dict__
g17
NN(dp436
tp437
Rp438
tp439
Rp440
S'186.96.128.0/18'
p441
(lp442
(I1411855038
g51
S'9002 60937 12389 16509 6461 1273'
p443
tp444
assS'193.232.244.147'
p445
g4
(g5
(g20
chistobgpstream
__dict__
g17
NN(dp446
tp447
Rp448
tp449
Rp450
S'186.96.128.0/18'
p451
(lp452
(I1411855038
g51
S'28917 60937 12389 16509 6461 1273'
p453
tp454
assS'193.232.244.36'
p455
g4
(g5
(g20
chistobgpstream
__dict__
g17
NN(dp456
tp457
Rp458
tp459
Rp460
S'186.96.128.0/18'
p461
(lp462
(I1411855079
g51
S'2895 3267 60937 12389 16509 6461 1273'
p463
tp464
assS'193.232.245.93'
p465
g4
(g5
(g20
chistobgpstream
__dict__
g17
NN(dp466
tp467
Rp468
tp469
Rp470
S'186.96.128.0/18'
p471
(lp472
(I1411855067
g51
S'25091 60937 12389 16509 6461 1273'
p473
tp474
assS'193.232.244.30'
p475
g4
(g5
(g20
chistobgpstream
__dict__
g17
NN(dp476
tp477
Rp478
tp479
Rp480
S'186.96.128.0/18'
p481
(lp482
(I1411855042
g51
S'8359 60937 12389 16509 6461 1273'
p483
tp484
asssS'rrc12'
p485
g4
(g5
(g26
chistobgpstream
__dict__
g17
NN(dp486
tp487
Rp488
tp489
Rp490
S'80.81.194.140'
p491
g4
(g5
(g20
chistobgpstream
__dict__
g17
NN(dp492
tp493
Rp494
tp495
Rp496
S'186.96.128.0/18'
p497
(lp498
(I1411855038
g51
S'25220 60937 12389 16509 6461 1273'
p499
tp500
assS'80.81.194.119'
p501
g4
(g5
(g20
chistobgpstream
__dict__
g17
NN(dp502
tp503
Rp504
tp505
Rp506
S'186.96.128.0/18'
p507
(lp508
(I1411855049
g51
S'34288 60937 12389 16509 6461 1273'
p509
tp510
assS'80.81.192.98'
p511
g4
(g5
(g20
chistobgpstream
__dict__
g17
NN(dp512
tp513
Rp514
tp515
Rp516
S'186.96.128.0/18'
p517
(lp518
(I1411855044
g51
S'9189 44953 60937 12389 16509 6461 1273'
p519
tp520
assS'80.81.194.59'
p521
g4
(g5
(g20
chistobgpstream
__dict__
g17
NN(dp522
tp523
Rp524
tp525
Rp526
S'186.96.128.0/18'
p527
(lp528
(I1411855038
g51
S'29140 41692 60937 12389 16509 6461 1273'
p529
tp530
a(I1411855038
g51
S'29140 60937 12389 16509 6461 1273'
p531
tp532
asssS'rrc15'
p533
g4
(g5
(g26
chistobgpstream
__dict__
g17
NN(dp534
tp535
Rp536
tp537
Rp538
S'187.16.218.21'
p539
g4
(g5
(g20
chistobgpstream
__dict__
g17
NN(dp540
tp541
Rp542
tp543
Rp544
S'186.96.128.0/18'
p545
(lp546
(I1411855038
g51
S'52888 1251 20080 60937 12389 16509 6461 1273'
p547
tp548
assS'187.16.216.102'
p549
g4
(g5
(g20
chistobgpstream
__dict__
g17
NN(dp550
tp551
Rp552
tp553
Rp554
S'186.96.128.0/18'
p555
(lp556
(I1411855068
g51
S'53070 12989 60937 12389 16509 6461 1273'
p557
tp558
assS'187.16.216.4'
p559
g4
(g5
(g20
chistobgpstream
__dict__
g17
NN(dp560
tp561
Rp562
tp563
Rp564
S'186.96.128.0/18'
p565
(lp566
(I1411855039
g51
S'1916 20080 60937 12389 16509 6461 1273'
p567
tp568
asssS'rrc14'
p569
g4
(g5
(g26
chistobgpstream
__dict__
g17
NN(dp570
tp571
Rp572
tp573
Rp574
S'198.32.176.3'
p575
g4
(g5
(g20
chistobgpstream
__dict__
g17
NN(dp576
tp577
Rp578
tp579
Rp580
S'186.96.128.0/18'
p581
(lp582
(I1411855045
g51
S'1280 6939 60937 12389 16509 6461 1273'
p583
tp584
asssS'route-views.nwax'
p585
g4
(g5
(g26
chistobgpstream
__dict__
g17
NN(dp586
tp587
Rp588
tp589
Rp590
S'198.32.195.24'
p591
g4
(g5
(g20
chistobgpstream
__dict__
g17
NN(dp592
tp593
Rp594
tp595
Rp596
S'186.96.128.0/18'
p597
(lp598
(I1411855038
g51
S'15301 6939 60937 12389 16509 6461 1273'
p599
tp600
assS'198.32.195.46'
p601
g4
(g5
(g20
chistobgpstream
__dict__
g17
NN(dp602
tp603
Rp604
tp605
Rp606
S'186.96.128.0/18'
p607
(lp608
(I1411855038
g51
S'54073 2044 6939 60937 12389 16509 6461 1273'
p609
tp610
asssS'route-views.telxatl'
p611
g4
(g5
(g26
chistobgpstream
__dict__
g17
NN(dp612
tp613
Rp614
tp615
Rp616
S'198.32.132.175'
p617
g4
(g5
(g20
chistobgpstream
__dict__
g17
NN(dp618
tp619
Rp620
tp621
Rp622
S'186.96.128.0/18'
p623
(lp624
(I1411855038
g51
S'9002 60937 12389 16509 6461 1273'
p625
tp626
assS'198.32.132.114'
p627
g4
(g5
(g20
chistobgpstream
__dict__
g17
NN(dp628
tp629
Rp630
tp631
Rp632
S'186.96.128.0/18'
p633
(lp634
(I1411855059
g51
S'16700 6939 60937 12389 16509 6461 1273'
p635
tp636
assS'198.32.132.75'
p637
g4
(g5
(g20
chistobgpstream
__dict__
g17
NN(dp638
tp639
Rp640
tp641
Rp642
S'186.96.128.0/18'
p643
(lp644
(I1411855038
g51
S'6939 60937 12389 16509 6461 1273'
p645
tp646
asssS'route-views.linx'
p647
g4
(g5
(g26
chistobgpstream
__dict__
g17
NN(dp648
tp649
Rp650
tp651
Rp652
S'195.66.236.175'
p653
g4
(g5
(g20
chistobgpstream
__dict__
g17
NN(dp654
tp655
Rp656
tp657
Rp658
S'186.96.128.0/18'
p659
(lp660
(I1411855038
g51
S'13030 60937 12389 16509 6461 1273'
p661
tp662
assS'195.66.224.66'
p663
g4
(g5
(g20
chistobgpstream
__dict__
g17
NN(dp664
tp665
Rp666
tp667
Rp668
S'186.96.128.0/18'
p669
(lp670
(I1411855089
g51
S'8426 6777 60937 12389 16509 6461 1273'
p671
tp672
assS'195.66.225.86'
p673
g4
(g5
(g20
chistobgpstream
__dict__
g17
NN(dp674
tp675
Rp676
tp677
Rp678
S'186.96.128.0/18'
p679
(lp680
(I1411855055
g51
S'34288 60937 12389 16509 6461 1273'
p681
tp682
assS'195.66.226.74'
p683
g4
(g5
(g20
chistobgpstream
__dict__
g17
NN(dp684
tp685
Rp686
tp687
Rp688
S'186.96.128.0/18'
p689
(lp690
(I1411855051
g51
S'41695 8468 60937 12389 16509 6461 1273'
p691
tp692
assS'195.66.224.21'
p693
g4
(g5
(g20
chistobgpstream
__dict__
g17
NN(dp694
tp695
Rp696
tp697
Rp698
S'186.96.128.0/18'
p699
(lp700
(I1411855038
g51
S'6939 60937 12389 16509 6461 1273'
p701
tp702
assS'195.66.224.175'
p703
g4
(g5
(g20
chistobgpstream
__dict__
g17
NN(dp704
tp705
Rp706
tp707
Rp708
S'186.96.128.0/18'
p709
(lp710
(I1411855038
g51
S'13030 60937 12389 16509 6461 1273'
p711
tp712
assS'195.66.224.215'
p713
g4
(g5
(g20
chistobgpstream
__dict__
g17
NN(dp714
tp715
Rp716
tp717
Rp718
S'186.96.128.0/18'
p719
(lp720
(I1411855043
g51
S'31500 3267 60937 12389 16509 6461 1273'
p721
tp722
asssS'route-views.saopaulo'
p723
g4
(g5
(g26
chistobgpstream
__dict__
g17
NN(dp724
tp725
Rp726
tp727
Rp728
S'187.16.218.52'
p729
g4
(g5
(g20
chistobgpstream
__dict__
g17
NN(dp730
tp731
Rp732
tp733
Rp734
S'186.96.128.0/18'
p735
(lp736
(I1411855067
g51
S'53237 12989 60937 12389 16509 6461 1273'
p737
tp738
assS'187.16.216.20'
p739
g4
(g5
(g20
chistobgpstream
__dict__
g17
NN(dp740
tp741
Rp742
tp743
Rp744
S'186.96.128.0/18'
p745
(lp746
(I1411855324
g51
S'28571 1251 20080 60937 12389 16509 6461 1273'
p747
tp748
a(I1411858297
g51
S'28571 1916 20080 60937 12389 16509 6461 1273'
p749
tp750
assS'187.16.218.21'
p751
g4
(g5
(g20
chistobgpstream
__dict__
g17
NN(dp752
tp753
Rp754
tp755
Rp756
S'186.96.128.0/18'
p757
(lp758
(I1411855040
g51
S'52888 1251 20080 60937 12389 16509 6461 1273'
p759
tp760
assS'187.16.218.57'
p761
g4
(g5
(g20
chistobgpstream
__dict__
g17
NN(dp762
tp763
Rp764
tp765
Rp766
S'186.96.128.0/18'
p767
(lp768
(I1411855044
g51
S'28294 28667 28124 18479 7162 12989 60937 12389 16509 6461 1273'
p769
tp770
assS'187.16.216.4'
p771
g4
(g5
(g20
chistobgpstream
__dict__
g17
NN(dp772
tp773
Rp774
tp775
Rp776
S'186.96.128.0/18'
p777
(lp778
(I1411855040
g51
S'1916 20080 60937 12389 16509 6461 1273'
p779
tp780
asssS'route-views.isc'
p781
g4
(g5
(g26
chistobgpstream
__dict__
g17
NN(dp782
tp783
Rp784
tp785
Rp786
S'198.32.176.20'
p787
g4
(g5
(g20
chistobgpstream
__dict__
g17
NN(dp788
tp789
Rp790
tp791
Rp792
S'186.96.128.0/18'
p793
(lp794
(I1411855038
g51
S'6939 60937 12389 16509 6461 1273'
p795
tp796
asssS'rrc03'
p797
g4
(g5
(g26
chistobgpstream
__dict__
g17
NN(dp798
tp799
Rp800
tp801
Rp802
S'195.69.144.200'
p803
g4
(g5
(g20
chistobgpstream
__dict__
g17
NN(dp804
tp805
Rp806
tp807
Rp808
S'186.96.128.0/18'
p809
(lp810
(I1411855038
g51
S'12859 60937 12389 16509 6461 1273'
p811
tp812
assS'193.111.172.5'
p813
g4
(g5
(g20
chistobgpstream
__dict__
g17
NN(dp814
tp815
Rp816
tp817
Rp818
S'186.96.128.0/18'
p819
(lp820
(I1411855038
g51
S'20562 60937 12389 16509 6461 1273'
p821
tp822
assS'195.69.144.149'
p823
g4
(g5
(g20
chistobgpstream
__dict__
g17
NN(dp824
tp825
Rp826
tp827
Rp828
S'186.96.128.0/18'
p829
(lp830
(I1411855043
g51
S'15435 60937 12389 16509 6461 1273'
p831
tp832
assS'193.239.116.17'
p833
g4
(g5
(g20
chistobgpstream
__dict__
g17
NN(dp834
tp835
Rp836
tp837
Rp838
S'186.96.128.0/18'
p839
(lp840
(I1411855038
g51
S'20562 60937 12389 16509 6461 1273'
p841
tp842
assS'195.69.144.111'
p843
g4
(g5
(g20
chistobgpstream
__dict__
g17
NN(dp844
tp845
Rp846
tp847
Rp848
S'186.96.128.0/18'
p849
(lp850
(I1411855056
g51
S'30132 60937 12389 16509 6461 1273'
p851
tp852
assS'195.69.144.34'
p853
g4
(g5
(g20
chistobgpstream
__dict__
g17
NN(dp854
tp855
Rp856
tp857
Rp858
S'186.96.128.0/18'
p859
(lp860
(I1411855038
g51
S'1103 60937 12389 16509 6461 1273'
p861
tp862
assS'193.239.116.200'
p863
g4
(g5
(g20
chistobgpstream
__dict__
g17
NN(dp864
tp865
Rp866
tp867
Rp868
S'186.96.128.0/18'
p869
(lp870
(I1411855049
g51
S'31019 60937 12389 16509 6461 1273'
p871
tp872
assS'195.69.146.99'
p873
g4
(g5
(g20
chistobgpstream
__dict__
g17
NN(dp874
tp875
Rp876
tp877
Rp878
S'186.96.128.0/18'
p879
(lp880
(I1411855053
g51
S'50763 60937 12389 16509 6461 1273'
p881
tp882
asssS'rrc00'
p883
g4
(g5
(g26
chistobgpstream
__dict__
g17
NN(dp884
tp885
Rp886
tp887
Rp888
S'218.189.6.2'
p889
g4
(g5
(g20
chistobgpstream
__dict__
g17
NN(dp890
tp891
Rp892
tp893
Rp894
S'186.96.128.0/18'
p895
(lp896
(I1411855138
g51
S'9304 60937 12389 16509 6461 1273'
p897
tp898
assS'193.0.0.56'
p899
g4
(g5
(g20
chistobgpstream
__dict__
g17
NN(dp900
tp901
Rp902
tp903
Rp904
S'186.96.128.0/18'
p905
(lp906
(I1411855038
g51
S'3333 60937 12389 16509 6461 1273'
p907
tp908
assS'176.12.110.8'
p909
g4
(g5
(g20
chistobgpstream
__dict__
g17
NN(dp910
tp911
Rp912
tp913
Rp914
S'186.96.128.0/18'
p915
(lp916
(I1411855051
g51
S'50300 60937 12389 16509 6461 1273'
p917
tp918
assS'193.150.22.1'
p919
g4
(g5
(g20
chistobgpstream
__dict__
g17
NN(dp920
tp921
Rp922
tp923
Rp924
S'186.96.128.0/18'
p925
(lp926
(I1411855079
g51
S'57381 42708 60937 12389 16509 6461 1273'
p927
tp928
assS'212.25.27.44'
p929
g4
(g5
(g20
chistobgpstream
__dict__
g17
NN(dp930
tp931
Rp932
tp933
Rp934
S'186.96.128.0/18'
p935
(lp936
(I1411855043
g51
S'8758 15576 6772 13030 60937 12389 16509 6461 1273'
p937
tp938
assS'195.47.235.100'
p939
g4
(g5
(g20
chistobgpstream
__dict__
g17
NN(dp940
tp941
Rp942
tp943
Rp944
S'186.96.128.0/18'
p945
(lp946
(I1411855057
g51
S'6881 29208 60937 12389 16509 6461 1273'
p947
tp948
assS'203.119.76.5'
p949
g4
(g5
(g20
chistobgpstream
__dict__
g17
NN(dp950
tp951
Rp952
tp953
Rp954
S'186.96.128.0/18'
p955
(lp956
(I1411855057
g51
S'4608 24130 7545 6939 60937 12389 16509 6461 1273'
p957
tp958
asssS'rrc01'
p959
g4
(g5
(g26
chistobgpstream
__dict__
g17
NN(dp960
tp961
Rp962
tp963
Rp964
S'195.66.224.175'
p965
g4
(g5
(g20
chistobgpstream
__dict__
g17
NN(dp966
tp967
Rp968
tp969
Rp970
S'186.96.128.0/18'
p971
(lp972
(I1411855038
g51
S'13030 60937 12389 16509 6461 1273'
p973
tp974
assS'195.66.226.20'
p975
g4
(g5
(g20
chistobgpstream
__dict__
g17
NN(dp976
tp977
Rp978
tp979
Rp980
S'186.96.128.0/18'
p981
(lp982
(I1411855062
g51
S'56730 31463 50300 60937 12389 16509 6461 1273'
p983
tp984
assS'195.66.224.151'
p985
g4
(g5
(g20
chistobgpstream
__dict__
g17
NN(dp986
tp987
Rp988
tp989
Rp990
S'186.96.128.0/18'
p991
(lp992
(I1411855044
g51
S'8468 60937 12389 16509 6461 1273'
p993
tp994
assS'195.66.225.216'
p995
g4
(g5
(g20
chistobgpstream
__dict__
g17
NN(dp996
tp997
Rp998
tp999
Rp1000
S'186.96.128.0/18'
p1001
(lp1002
(I1411855058
g51
S'25160 60937 12389 16509 6461 1273'
p1003
tp1004
asssS'rrc06'
p1005
g4
(g5
(g26
chistobgpstream
__dict__
g17
NN(dp1006
tp1007
Rp1008
tp1009
Rp1010
S'202.249.2.185'
p1011
g4
(g5
(g20
chistobgpstream
__dict__
g17
NN(dp1012
tp1013
Rp1014
tp1015
Rp1016
S'186.96.128.0/18'
p1017
(lp1018
(I1411855038
g51
S'25152 6939 60937 12389 16509 6461 1273'
p1019
tp1020
asssS'rrc07'
p1021
g4
(g5
(g26
chistobgpstream
__dict__
g17
NN(dp1022
tp1023
Rp1024
tp1025
Rp1026
S'194.68.123.157'
p1027
g4
(g5
(g20
chistobgpstream
__dict__
g17
NN(dp1028
tp1029
Rp1030
tp1031
Rp1032
S'186.96.128.0/18'
p1033
(lp1034
(I1411855038
g51
S'9002 60937 12389 16509 6461 1273'
p1035
tp1036
asssS'rrc04'
p1037
g4
(g5
(g26
chistobgpstream
__dict__
g17
NN(dp1038
tp1039
Rp1040
tp1041
Rp1042
S'192.65.185.142'
p1043
g4
(g5
(g20
chistobgpstream
__dict__
g17
NN(dp1044
tp1045
Rp1046
tp1047
Rp1048
S'186.96.128.0/18'
p1049
(lp1050
(I1411855063
g51
S'20932 60937 12389 16509 6461 1273'
p1051
tp1052
assS'192.65.185.244'
p1053
g4
(g5
(g20
chistobgpstream
__dict__
g17
NN(dp1054
tp1055
Rp1056
tp1057
Rp1058
S'186.96.128.0/18'
p1059
(lp1060
(I1411855051
g51
S'25091 60937 12389 16509 6461 1273'
p1061
tp1062
asssS'rrc05'
p1063
g4
(g5
(g26
chistobgpstream
__dict__
g17
NN(dp1064
tp1065
Rp1066
tp1067
Rp1068
S'193.203.0.1'
p1069
g4
(g5
(g20
chistobgpstream
__dict__
g17
NN(dp1070
tp1071
Rp1072
tp1073
Rp1074
S'186.96.128.0/18'
p1075
(lp1076
(I1411855057
g51
S'1853 1764 60937 12389 16509 6461 1273'
p1077
tp1078
assS'193.203.0.130'
p1079
g4
(g5
(g20
chistobgpstream
__dict__
g17
NN(dp1080
tp1081
Rp1082
tp1083
Rp1084
S'186.96.128.0/18'
p1085
(lp1086
(I1411855052
g51
S'8596 1764 60937 12389 16509 6461 1273'
p1087
tp1088
assS'193.203.0.21'
p1089
g4
(g5
(g20
chistobgpstream
__dict__
g17
NN(dp1090
tp1091
Rp1092
tp1093
Rp1094
S'186.96.128.0/18'
p1095
(lp1096
(I1411855038
g51
S'8447 60937 12389 16509 6461 1273'
p1097
tp1098
assS'193.203.0.63'
p1099
g4
(g5
(g20
chistobgpstream
__dict__
g17
NN(dp1100
tp1101
Rp1102
tp1103
Rp1104
S'186.96.128.0/18'
p1105
(lp1106
(I1411855042
g51
S'6720 1853 1764 60937 12389 16509 6461 1273'
p1107
tp1108
a(I1411855073
g51
S'6720 8447 60937 12389 16509 6461 1273'
p1109
tp1110
asssS'route-views.sg'
p1111
g4
(g5
(g26
chistobgpstream
__dict__
g17
NN(dp1112
tp1113
Rp1114
tp1115
Rp1116
S'202.79.197.159'
p1117
g4
(g5
(g20
chistobgpstream
__dict__
g17
NN(dp1118
tp1119
Rp1120
tp1121
Rp1122
S'186.96.128.0/18'
p1123
(lp1124
(I1411855038
g51
S'24482 60937 12389 16509 6461 1273'
p1125
tp1126
assssS'title'
p1127
S'torg_3'
p1128
sS'start_time'
p1129
S'2014-09-27T21:00:00'
p1130
sS'no'
p1131
S'7'
p1132
sS'detail'
p1133
S'moas_unused'
p1134
sS'global_paths'
p1135
(dp1136
g49
(lp1137
((lp1138
S'22873'
p1139
aS'6939'
p1140
aS'60937'
p1141
aS'12389'
p1142
aS'16509'
p1143
aS'6461'
p1144
aS'1273'
p1145
a(lp1146
F5.05700692048171e-06
aF0.042284416540601
aI0
aF0.00568471684896378
aF0.00324471809925295
aF0.00763197676290462
aF0.00959672442823849
atp1147
a((lp1148
S'29140'
p1149
aS'41692'
p1150
aS'60937'
p1151
aS'12389'
p1152
aS'16509'
p1153
aS'6461'
p1154
aS'1273'
p1155
a(lp1156
F1.50271343785036e-06
aF2.07294970354326e-05
aI0
aF0.00568471684896378
aF0.00324471809925295
aF0.00763197676290462
aF0.00959672442823849
atp1157
a((lp1158
S'15301'
p1159
aS'6939'
p1160
aS'60937'
p1161
aS'12389'
p1162
aS'16509'
p1163
aS'6461'
p1164
aS'1273'
p1165
a(lp1166
F5.02448581895085e-07
aF0.042284416540601
aI0
aF0.00568471684896378
aF0.00324471809925295
aF0.00763197676290462
aF0.00959672442823849
atp1167
a((lp1168
S'53237'
p1169
aS'12989'
p1170
aS'60937'
p1171
aS'12389'
p1172
aS'16509'
p1173
aS'6461'
p1174
aS'1273'
p1175
a(lp1176
F0.000109207201144092
aF0.000667306989144306
aI0
aF0.00568471684896378
aF0.00324471809925295
aF0.00763197676290462
aF0.00959672442823849
atp1177
a((lp1178
S'50300'
p1179
aS'60937'
p1180
aS'12389'
p1181
aS'16509'
p1182
aS'6461'
p1183
aS'1273'
p1184
a(lp1185
F1.31977247233518e-05
aI0
aF0.00568471684896378
aF0.00324471809925295
aF0.00763197676290462
aF0.00959672442823849
atp1186
a((lp1187
S'58511'
p1188
aS'2764'
p1189
aS'7545'
p1190
aS'6939'
p1191
aS'60937'
p1192
aS'12389'
p1193
aS'16509'
p1194
aS'6461'
p1195
aS'1273'
p1196
a(lp1197
F3.66001562273585e-06
aF0.00139709023871127
aF0.00194189542935193
aF0.042284416540601
aI0
aF0.00568471684896378
aF0.00324471809925295
aF0.00763197676290462
aF0.00959672442823849
atp1198
a((lp1199
S'31019'
p1200
aS'60937'
p1201
aS'12389'
p1202
aS'16509'
p1203
aS'6461'
p1204
aS'1273'
p1205
a(lp1206
F9.39195898656478e-08
aI0
aF0.00568471684896378
aF0.00324471809925295
aF0.00763197676290462
aF0.00959672442823849
atp1207
a((lp1208
S'6720'
p1209
aS'1853'
p1210
aS'1764'
p1211
aS'60937'
p1212
aS'12389'
p1213
aS'16509'
p1214
aS'6461'
p1215
aS'1273'
p1216
a(lp1217
F2.55461284434562e-05
aF0.000554827407075216
aF0.000356072717426161
aI0
aF0.00568471684896378
aF0.00324471809925295
aF0.00763197676290462
aF0.00959672442823849
atp1218
a((lp1219
S'202018'
p1220
aS'60937'
p1221
aS'12389'
p1222
aS'16509'
p1223
aS'6461'
p1224
aS'1273'
p1225
a(lp1226
F6.10609492792655e-06
aI0
aF0.00568471684896378
aF0.00324471809925295
aF0.00763197676290462
aF0.00959672442823849
atp1227
a((lp1228
S'38883'
p1229
aS'4826'
p1230
aS'6939'
p1231
aS'60937'
p1232
aS'12389'
p1233
aS'16509'
p1234
aS'6461'
p1235
aS'1273'
p1236
a(lp1237
F5.66449162368829e-06
aF0.00134132185117331
aF0.042284416540601
aI0
aF0.00568471684896378
aF0.00324471809925295
aF0.00763197676290462
aF0.00959672442823849
atp1238
a((lp1239
S'2895'
p1240
aS'3267'
p1241
aS'60937'
p1242
aS'12389'
p1243
aS'16509'
p1244
aS'6461'
p1245
aS'1273'
p1246
a(lp1247
F3.84755132051814e-05
aF0.000345642604712841
aI0
aF0.00568471684896378
aF0.00324471809925295
aF0.00763197676290462
aF0.00959672442823849
atp1248
a((lp1249
S'12779'
p1250
aS'60937'
p1251
aS'12389'
p1252
aS'16509'
p1253
aS'6461'
p1254
aS'1273'
p1255
a(lp1256
F7.40777975627919e-05
aI0
aF0.00568471684896378
aF0.00324471809925295
aF0.00763197676290462
aF0.00959672442823849
atp1257
a((lp1258
S'59715'
p1259
aS'29449'
p1260
aS'15589'
p1261
aS'60937'
p1262
aS'12389'
p1263
aS'16509'
p1264
aS'6461'
p1265
aS'1273'
p1266
a(lp1267
F3.75678359462591e-07
aF9.65400935636346e-06
aF0.000126298055653274
aI0
aF0.00568471684896378
aF0.00324471809925295
aF0.00763197676290462
aF0.00959672442823849
atp1268
a((lp1269
S'34288'
p1270
aS'60937'
p1271
aS'12389'
p1272
aS'16509'
p1273
aS'6461'
p1274
aS'1273'
p1275
a(lp1276
F6.35488918217058e-06
aI0
aF0.00568471684896378
aF0.00324471809925295
aF0.00763197676290462
aF0.00959672442823849
atp1277
a((lp1278
S'38883'
p1279
aS'24130'
p1280
aS'7545'
p1281
aS'6939'
p1282
aS'60937'
p1283
aS'12389'
p1284
aS'16509'
p1285
aS'6461'
p1286
aS'1273'
p1287
a(lp1288
F5.66449162368829e-06
aF0.00011414664852631
aF0.00194189542935193
aF0.042284416540601
aI0
aF0.00568471684896378
aF0.00324471809925295
aF0.00763197676290462
aF0.00959672442823849
atp1289
a((lp1290
S'8447'
p1291
aS'60937'
p1292
aS'12389'
p1293
aS'16509'
p1294
aS'6461'
p1295
aS'1273'
p1296
a(lp1297
F0.00146814795522881
aI0
aF0.00568471684896378
aF0.00324471809925295
aF0.00763197676290462
aF0.00959672442823849
atp1298
a((lp1299
S'200130'
p1300
aS'60937'
p1301
aS'12389'
p1302
aS'16509'
p1303
aS'6461'
p1304
aS'1273'
p1305
a(lp1306
F2.74295252392229e-05
aI0
aF0.00568471684896378
aF0.00324471809925295
aF0.00763197676290462
aF0.00959672442823849
atp1307
a((lp1308
S'28917'
p1309
aS'60937'
p1310
aS'12389'
p1311
aS'16509'
p1312
aS'6461'
p1313
aS'1273'
p1314
a(lp1315
F0.000278434284224381
aI0
aF0.00568471684896378
aF0.00324471809925295
aF0.00763197676290462
aF0.00959672442823849
atp1316
a((lp1317
S'54073'
p1318
aS'2044'
p1319
aS'6939'
p1320
aS'60937'
p1321
aS'12389'
p1322
aS'16509'
p1323
aS'6461'
p1324
aS'1273'
p1325
a(lp1326
F9.39195898656478e-08
aF6.3341648454848e-05
aF0.042284416540601
aI0
aF0.00568471684896378
aF0.00324471809925295
aF0.00763197676290462
aF0.00959672442823849
atp1327
a((lp1328
S'12637'
p1329
aS'60937'
p1330
aS'12389'
p1331
aS'16509'
p1332
aS'6461'
p1333
aS'1273'
p1334
a(lp1335
F2.98752768287593e-05
aI0
aF0.00568471684896378
aF0.00324471809925295
aF0.00763197676290462
aF0.00959672442823849
atp1336
a((lp1337
S'25220'
p1338
aS'60937'
p1339
aS'12389'
p1340
aS'16509'
p1341
aS'6461'
p1342
aS'1273'
p1343
a(lp1344
F1.22873423828229e-05
aI0
aF0.00568471684896378
aF0.00324471809925295
aF0.00763197676290462
aF0.00959672442823849
atp1345
a((lp1346
S'1916'
p1347
aS'20080'
p1348
aS'60937'
p1349
aS'12389'
p1350
aS'16509'
p1351
aS'6461'
p1352
aS'1273'
p1353
a(lp1354
F0.000835534316613163
aF0.000442086383326029
aI0
aF0.00568471684896378
aF0.00324471809925295
aF0.00763197676290462
aF0.00959672442823849
atp1355
a((lp1356
S'41695'
p1357
aS'8468'
p1358
aS'60937'
p1359
aS'12389'
p1360
aS'16509'
p1361
aS'6461'
p1362
aS'1273'
p1363
a(lp1364
F3.7576021699012e-06
aF0.000159886121399937
aI0
aF0.00568471684896378
aF0.00324471809925295
aF0.00763197676290462
aF0.00959672442823849
atp1365
a((lp1366
S'29140'
p1367
aS'60937'
p1368
aS'12389'
p1369
aS'16509'
p1370
aS'6461'
p1371
aS'1273'
p1372
a(lp1373
F1.50271343785036e-06
aI0
aF0.00568471684896378
aF0.00324471809925295
aF0.00763197676290462
aF0.00959672442823849
atp1374
a((lp1375
S'4826'
p1376
aS'6939'
p1377
aS'60937'
p1378
aS'12389'
p1379
aS'16509'
p1380
aS'6461'
p1381
aS'1273'
p1382
a(lp1383
F0.00134132185117331
aF0.042284416540601
aI0
aF0.00568471684896378
aF0.00324471809925295
aF0.00763197676290462
aF0.00959672442823849
atp1384
a((lp1385
S'20932'
p1386
aS'60937'
p1387
aS'12389'
p1388
aS'16509'
p1389
aS'6461'
p1390
aS'1273'
p1391
a(lp1392
F3.69090016945023e-06
aI0
aF0.00568471684896378
aF0.00324471809925295
aF0.00763197676290462
aF0.00959672442823849
atp1393
a((lp1394
S'8492'
p1395
aS'9002'
p1396
aS'60937'
p1397
aS'12389'
p1398
aS'16509'
p1399
aS'6461'
p1400
aS'1273'
p1401
a(lp1402
F4.30580214383084e-05
aF0.0033294719012295
aI0
aF0.00568471684896378
aF0.00324471809925295
aF0.00763197676290462
aF0.00959672442823849
atp1403
a((lp1404
S'30844'
p1405
aS'60937'
p1406
aS'12389'
p1407
aS'16509'
p1408
aS'6461'
p1409
aS'1273'
p1410
a(lp1411
F0.000156323639163795
aI0
aF0.00568471684896378
aF0.00324471809925295
aF0.00763197676290462
aF0.00959672442823849
atp1412
a((lp1413
S'25091'
p1414
aS'60937'
p1415
aS'12389'
p1416
aS'16509'
p1417
aS'6461'
p1418
aS'1273'
p1419
a(lp1420
F8.30360582815562e-06
aI0
aF0.00568471684896378
aF0.00324471809925295
aF0.00763197676290462
aF0.00959672442823849
atp1421
a((lp1422
S'48285'
p1423
aS'16150'
p1424
aS'60937'
p1425
aS'12389'
p1426
aS'16509'
p1427
aS'6461'
p1428
aS'1273'
p1429
a(lp1430
F1.2206298039136e-06
aF0.000171509542857851
aI0
aF0.00568471684896378
aF0.00324471809925295
aF0.00763197676290462
aF0.00959672442823849
atp1431
a((lp1432
S'25160'
p1433
aS'60937'
p1434
aS'12389'
p1435
aS'16509'
p1436
aS'6461'
p1437
aS'1273'
p1438
a(lp1439
F2.55981115498924e-06
aI0
aF0.00568471684896378
aF0.00324471809925295
aF0.00763197676290462
aF0.00959672442823849
atp1440
a((lp1441
S'3267'
p1442
aS'60937'
p1443
aS'12389'
p1444
aS'16509'
p1445
aS'6461'
p1446
aS'1273'
p1447
a(lp1448
F0.000345642604712841
aI0
aF0.00568471684896378
aF0.00324471809925295
aF0.00763197676290462
aF0.00959672442823849
atp1449
a((lp1450
S'1103'
p1451
aS'60937'
p1452
aS'12389'
p1453
aS'16509'
p1454
aS'6461'
p1455
aS'1273'
p1456
a(lp1457
F0.00408023542215465
aI0
aF0.00568471684896378
aF0.00324471809925295
aF0.00763197676290462
aF0.00959672442823849
atp1458
a((lp1459
S'3333'
p1460
aS'60937'
p1461
aS'12389'
p1462
aS'16509'
p1463
aS'6461'
p1464
aS'1273'
p1465
a(lp1466
F2.44228103466433e-06
aI0
aF0.00568471684896378
aF0.00324471809925295
aF0.00763197676290462
aF0.00959672442823849
atp1467
a((lp1468
S'8359'
p1469
aS'60937'
p1470
aS'12389'
p1471
aS'16509'
p1472
aS'6461'
p1473
aS'1273'
p1474
a(lp1475
F0.00142322521494886
aI0
aF0.00568471684896378
aF0.00324471809925295
aF0.00763197676290462
aF0.00959672442823849
atp1476
a((lp1477
S'37100'
p1478
aS'60937'
p1479
aS'12389'
p1480
aS'16509'
p1481
aS'6461'
p1482
aS'1273'
p1483
a(lp1484
F0.000818483913502336
aI0
aF0.00568471684896378
aF0.00324471809925295
aF0.00763197676290462
aF0.00959672442823849
atp1485
a((lp1486
S'13030'
p1487
aS'60937'
p1488
aS'12389'
p1489
aS'16509'
p1490
aS'6461'
p1491
aS'1273'
p1492
a(lp1493
F0.000629517693277728
aI0
aF0.00568471684896378
aF0.00324471809925295
aF0.00763197676290462
aF0.00959672442823849
atp1494
a((lp1495
S'19754'
p1496
aS'6939'
p1497
aS'60937'
p1498
aS'12389'
p1499
aS'16509'
p1500
aS'6461'
p1501
aS'1273'
p1502
a(lp1503
F4.69597949328239e-06
aF0.042284416540601
aI0
aF0.00568471684896378
aF0.00324471809925295
aF0.00763197676290462
aF0.00959672442823849
atp1504
a((lp1505
S'293'
p1506
aS'6939'
p1507
aS'60937'
p1508
aS'12389'
p1509
aS'16509'
p1510
aS'6461'
p1511
aS'1273'
p1512
a(lp1513
F0.000905448887826991
aF0.042284416540601
aI0
aF0.00568471684896378
aF0.00324471809925295
aF0.00763197676290462
aF0.00959672442823849
atp1514
a((lp1515
S'48526'
p1516
aS'60937'
p1517
aS'12389'
p1518
aS'16509'
p1519
aS'6461'
p1520
aS'1273'
p1521
a(lp1522
F1.54028127379662e-05
aI0
aF0.00568471684896378
aF0.00324471809925295
aF0.00763197676290462
aF0.00959672442823849
atp1523
a((lp1524
S'20562'
p1525
aS'60937'
p1526
aS'12389'
p1527
aS'16509'
p1528
aS'6461'
p1529
aS'1273'
p1530
a(lp1531
F0.000220329389926902
aI0
aF0.00568471684896378
aF0.00324471809925295
aF0.00763197676290462
aF0.00959672442823849
atp1532
a((lp1533
S'41095'
p1534
aS'60937'
p1535
aS'12389'
p1536
aS'16509'
p1537
aS'6461'
p1538
aS'1273'
p1539
a(lp1540
F5.11777720354048e-05
aI0
aF0.00568471684896378
aF0.00324471809925295
aF0.00763197676290462
aF0.00959672442823849
atp1541
a((lp1542
S'6939'
p1543
aS'60937'
p1544
aS'12389'
p1545
aS'16509'
p1546
aS'6461'
p1547
aS'1273'
p1548
a(lp1549
F0.042284416540601
aI0
aF0.00568471684896378
aF0.00324471809925295
aF0.00763197676290462
aF0.00959672442823849
atp1550
a((lp1551
S'40191'
p1552
aS'6939'
p1553
aS'60937'
p1554
aS'12389'
p1555
aS'16509'
p1556
aS'6461'
p1557
aS'1273'
p1558
a(lp1559
F6.54481198384338e-06
aF0.042284416540601
aI0
aF0.00568471684896378
aF0.00324471809925295
aF0.00763197676290462
aF0.00959672442823849
atp1560
a((lp1561
S'31500'
p1562
aS'3267'
p1563
aS'60937'
p1564
aS'12389'
p1565
aS'16509'
p1566
aS'6461'
p1567
aS'1273'
p1568
a(lp1569
F9.24567891909074e-05
aF0.000345642604712841
aI0
aF0.00568471684896378
aF0.00324471809925295
aF0.00763197676290462
aF0.00959672442823849
atp1570
a((lp1571
S'56730'
p1572
aS'31463'
p1573
aS'50300'
p1574
aS'60937'
p1575
aS'12389'
p1576
aS'16509'
p1577
aS'6461'
p1578
aS'1273'
p1579
a(lp1580
F2.62974851623814e-06
aF1.14822640098268e-05
aF1.31977247233518e-05
aI0
aF0.00568471684896378
aF0.00324471809925295
aF0.00763197676290462
aF0.00959672442823849
atp1581
a((lp1582
S'24482'
p1583
aS'60937'
p1584
aS'12389'
p1585
aS'16509'
p1586
aS'6461'
p1587
aS'1273'
p1588
a(lp1589
F6.60482336859342e-06
aI0
aF0.00568471684896378
aF0.00324471809925295
aF0.00763197676290462
aF0.00959672442823849
atp1590
a((lp1591
S'28571'
p1592
aS'1251'
p1593
aS'20080'
p1594
aS'60937'
p1595
aS'12389'
p1596
aS'16509'
p1597
aS'6461'
p1598
aS'1273'
p1599
a(lp1600
F3.8131353485453e-05
aF0.000167278164651919
aF0.000442086383326029
aI0
aF0.00568471684896378
aF0.00324471809925295
aF0.00763197676290462
aF0.00959672442823849
atp1601
a((lp1602
S'39821'
p1603
aS'28917'
p1604
aS'60937'
p1605
aS'12389'
p1606
aS'16509'
p1607
aS'6461'
p1608
aS'1273'
p1609
a(lp1610
F1.52991567662833e-06
aF0.000278434284224381
aI0
aF0.00568471684896378
aF0.00324471809925295
aF0.00763197676290462
aF0.00959672442823849
atp1611
a((lp1612
S'8468'
p1613
aS'60937'
p1614
aS'12389'
p1615
aS'16509'
p1616
aS'6461'
p1617
aS'1273'
p1618
a(lp1619
F0.000159886121399937
aI0
aF0.00568471684896378
aF0.00324471809925295
aF0.00763197676290462
aF0.00959672442823849
atp1620
a((lp1621
S'8331'
p1622
aS'39792'
p1623
aS'60937'
p1624
aS'12389'
p1625
aS'16509'
p1626
aS'6461'
p1627
aS'1273'
p1628
a(lp1629
F3.29493086789995e-05
aF0.000131410199402481
aI0
aF0.00568471684896378
aF0.00324471809925295
aF0.00763197676290462
aF0.00959672442823849
atp1630
a((lp1631
S'9002'
p1632
aS'60937'
p1633
aS'12389'
p1634
aS'16509'
p1635
aS'6461'
p1636
aS'1273'
p1637
a(lp1638
F0.0033294719012295
aI0
aF0.00568471684896378
aF0.00324471809925295
aF0.00763197676290462
aF0.00959672442823849
atp1639
a((lp1640
S'8426'
p1641
aS'6777'
p1642
aS'60937'
p1643
aS'12389'
p1644
aS'16509'
p1645
aS'6461'
p1646
aS'1273'
p1647
a(lp1648
F0.000409644495725177
aI0
aI0
aF0.00568471684896378
aF0.00324471809925295
aF0.00763197676290462
aF0.00959672442823849
atp1649
a((lp1650
S'30132'
p1651
aS'60937'
p1652
aS'12389'
p1653
aS'16509'
p1654
aS'6461'
p1655
aS'1273'
p1656
a(lp1657
F1.6182369772587e-07
aI0
aF0.00568471684896378
aF0.00324471809925295
aF0.00763197676290462
aF0.00959672442823849
atp1658
a((lp1659
S'8758'
p1660
aS'15576'
p1661
aS'6772'
p1662
aS'13030'
p1663
aS'60937'
p1664
aS'12389'
p1665
aS'16509'
p1666
aS'6461'
p1667
aS'1273'
p1668
a(lp1669
F1.86100990878041e-05
aF5.69295451654602e-05
aF4.35258864505436e-05
aF0.000629517693277728
aI0
aF0.00568471684896378
aF0.00324471809925295
aF0.00763197676290462
aF0.00959672442823849
atp1670
a((lp1671
S'16559'
p1672
aS'6939'
p1673
aS'60937'
p1674
aS'12389'
p1675
aS'16509'
p1676
aS'6461'
p1677
aS'1273'
p1678
a(lp1679
F8.43584096799657e-06
aF0.042284416540601
aI0
aF0.00568471684896378
aF0.00324471809925295
aF0.00763197676290462
aF0.00959672442823849
atp1680
a((lp1681
S'4608'
p1682
aS'24130'
p1683
aS'7545'
p1684
aS'6939'
p1685
aS'60937'
p1686
aS'12389'
p1687
aS'16509'
p1688
aS'6461'
p1689
aS'1273'
p1690
a(lp1691
F2.39226674161183e-06
aF0.00011414664852631
aF0.00194189542935193
aF0.042284416540601
aI0
aF0.00568471684896378
aF0.00324471809925295
aF0.00763197676290462
aF0.00959672442823849
atp1692
a((lp1693
S'9304'
p1694
aS'60937'
p1695
aS'12389'
p1696
aS'16509'
p1697
aS'6461'
p1698
aS'1273'
p1699
a(lp1700
F0.00132562539458418
aI0
aF0.00568471684896378
aF0.00324471809925295
aF0.00763197676290462
aF0.00959672442823849
atp1701
a((lp1702
S'28294'
p1703
aS'28667'
p1704
aS'28124'
p1705
aS'18479'
p1706
aS'7162'
p1707
aS'12989'
p1708
aS'60937'
p1709
aS'12389'
p1710
aS'16509'
p1711
aS'6461'
p1712
aS'1273'
p1713
a(lp1714
F9.39565107232179e-06
aF1.2771233375198e-05
aF1.99479482089156e-05
aF2.69422752146651e-05
aF0.000277201395906802
aF0.000667306989144306
aI0
aF0.00568471684896378
aF0.00324471809925295
aF0.00763197676290462
aF0.00959672442823849
atp1715
a((lp1716
S'50763'
p1717
aS'60937'
p1718
aS'12389'
p1719
aS'16509'
p1720
aS'6461'
p1721
aS'1273'
p1722
a(lp1723
F1.22095466825342e-06
aI0
aF0.00568471684896378
aF0.00324471809925295
aF0.00763197676290462
aF0.00959672442823849
atp1724
a((lp1725
S'52888'
p1726
aS'1251'
p1727
aS'20080'
p1728
aS'60937'
p1729
aS'12389'
p1730
aS'16509'
p1731
aS'6461'
p1732
aS'1273'
p1733
a(lp1734
F9.01628062710219e-06
aF0.000167278164651919
aF0.000442086383326029
aI0
aF0.00568471684896378
aF0.00324471809925295
aF0.00763197676290462
aF0.00959672442823849
atp1735
a((lp1736
S'53070'
p1737
aS'12989'
p1738
aS'60937'
p1739
aS'12389'
p1740
aS'16509'
p1741
aS'6461'
p1742
aS'1273'
p1743
a(lp1744
F4.04635724606884e-06
aF0.000667306989144306
aI0
aF0.00568471684896378
aF0.00324471809925295
aF0.00763197676290462
aF0.00959672442823849
atp1745
a((lp1746
S'9189'
p1747
aS'44953'
p1748
aS'60937'
p1749
aS'12389'
p1750
aS'16509'
p1751
aS'6461'
p1752
aS'1273'
p1753
a(lp1754
F1.92302244333798e-05
aF5.97942134402765e-06
aI0
aF0.00568471684896378
aF0.00324471809925295
aF0.00763197676290462
aF0.00959672442823849
atp1755
a((lp1756
S'6881'
p1757
aS'29208'
p1758
aS'60937'
p1759
aS'12389'
p1760
aS'16509'
p1761
aS'6461'
p1762
aS'1273'
p1763
a(lp1764
F1.03289056105475e-06
aF0.000258739690294171
aI0
aF0.00568471684896378
aF0.00324471809925295
aF0.00763197676290462
aF0.00959672442823849
atp1765
a((lp1766
S'16700'
p1767
aS'6939'
p1768
aS'60937'
p1769
aS'12389'
p1770
aS'16509'
p1771
aS'6461'
p1772
aS'1273'
p1773
a(lp1774
F1.04250744750869e-05
aF0.042284416540601
aI0
aF0.00568471684896378
aF0.00324471809925295
aF0.00763197676290462
aF0.00959672442823849
atp1775
a((lp1776
S'6720'
p1777
aS'8447'
p1778
aS'60937'
p1779
aS'12389'
p1780
aS'16509'
p1781
aS'6461'
p1782
aS'1273'
p1783
a(lp1784
F2.55461284434562e-05
aF0.00146814795522881
aI0
aF0.00568471684896378
aF0.00324471809925295
aF0.00763197676290462
aF0.00959672442823849
atp1785
a((lp1786
S'25152'
p1787
aS'6939'
p1788
aS'60937'
p1789
aS'12389'
p1790
aS'16509'
p1791
aS'6461'
p1792
aS'1273'
p1793
a(lp1794
F6.57437129059534e-07
aF0.042284416540601
aI0
aF0.00568471684896378
aF0.00324471809925295
aF0.00763197676290462
aF0.00959672442823849
atp1795
a((lp1796
S'28571'
p1797
aS'1916'
p1798
aS'20080'
p1799
aS'60937'
p1800
aS'12389'
p1801
aS'16509'
p1802
aS'6461'
p1803
aS'1273'
p1804
a(lp1805
F3.8131353485453e-05
aF0.000835534316613163
aF0.000442086383326029
aI0
aF0.00568471684896378
aF0.00324471809925295
aF0.00763197676290462
aF0.00959672442823849
atp1806
a((lp1807
S'8596'
p1808
aS'1764'
p1809
aS'60937'
p1810
aS'12389'
p1811
aS'16509'
p1812
aS'6461'
p1813
aS'1273'
p1814
a(lp1815
F4.28405642100035e-06
aF0.000356072717426161
aI0
aF0.00568471684896378
aF0.00324471809925295
aF0.00763197676290462
aF0.00959672442823849
atp1816
a((lp1817
S'1853'
p1818
aS'1764'
p1819
aS'60937'
p1820
aS'12389'
p1821
aS'16509'
p1822
aS'6461'
p1823
aS'1273'
p1824
a(lp1825
F0.000554827407075216
aF0.000356072717426161
aI0
aF0.00568471684896378
aF0.00324471809925295
aF0.00763197676290462
aF0.00959672442823849
atp1826
a((lp1827
S'57381'
p1828
aS'42708'
p1829
aS'60937'
p1830
aS'12389'
p1831
aS'16509'
p1832
aS'6461'
p1833
aS'1273'
p1834
a(lp1835
F1.87843135503396e-07
aF0.000158091172950773
aI0
aF0.00568471684896378
aF0.00324471809925295
aF0.00763197676290462
aF0.00959672442823849
atp1836
a((lp1837
S'15435'
p1838
aS'60937'
p1839
aS'12389'
p1840
aS'16509'
p1841
aS'6461'
p1842
aS'1273'
p1843
a(lp1844
F4.80868300112117e-05
aI0
aF0.00568471684896378
aF0.00324471809925295
aF0.00763197676290462
aF0.00959672442823849
atp1845
a((lp1846
S'1280'
p1847
aS'6939'
p1848
aS'60937'
p1849
aS'12389'
p1850
aS'16509'
p1851
aS'6461'
p1852
aS'1273'
p1853
a(lp1854
F7.73936148875626e-05
aF0.042284416540601
aI0
aF0.00568471684896378
aF0.00324471809925295
aF0.00763197676290462
aF0.00959672442823849
atp1855
a((lp1856
S'12859'
p1857
aS'60937'
p1858
aS'12389'
p1859
aS'16509'
p1860
aS'6461'
p1861
aS'1273'
p1862
a(lp1863
F2.40127399886959e-05
aI0
aF0.00568471684896378
aF0.00324471809925295
aF0.00763197676290462
aF0.00959672442823849
atp1864
assS'prefix'
p1865
S'186.96.128.0/18'
p1866
sS'local_paths'
p1867
(dp1868
g49
(dp1869
S'1273'
p1870
(lp1871
((lp1872
S'22873'
p1873
aS'6939'
p1874
aS'60937'
p1875
aS'12389'
p1876
aS'16509'
p1877
aS'6461'
p1878
aS'1273'
p1879
a(lp1880
I0
aI0
aI0
aI0
aI0
aF3.40132583681119e-06
aF1.0
atp1881
a((lp1882
S'29140'
p1883
aS'41692'
p1884
aS'60937'
p1885
aS'12389'
p1886
aS'16509'
p1887
aS'6461'
p1888
aS'1273'
p1889
a(lp1890
I0
aI0
aI0
aI0
aI0
aF3.40132583681119e-06
aF1.0
atp1891
a((lp1892
S'15301'
p1893
aS'6939'
p1894
aS'60937'
p1895
aS'12389'
p1896
aS'16509'
p1897
aS'6461'
p1898
aS'1273'
p1899
a(lp1900
I0
aI0
aI0
aI0
aI0
aF3.40132583681119e-06
aF1.0
atp1901
a((lp1902
S'53237'
p1903
aS'12989'
p1904
aS'60937'
p1905
aS'12389'
p1906
aS'16509'
p1907
aS'6461'
p1908
aS'1273'
p1909
a(lp1910
I0
aI0
aI0
aI0
aI0
aF3.40132583681119e-06
aF1.0
atp1911
a((lp1912
S'50300'
p1913
aS'60937'
p1914
aS'12389'
p1915
aS'16509'
p1916
aS'6461'
p1917
aS'1273'
p1918
a(lp1919
I0
aI0
aI0
aI0
aF3.40132583681119e-06
aF1.0
atp1920
a((lp1921
S'58511'
p1922
aS'2764'
p1923
aS'7545'
p1924
aS'6939'
p1925
aS'60937'
p1926
aS'12389'
p1927
aS'16509'
p1928
aS'6461'
p1929
aS'1273'
p1930
a(lp1931
I0
aI0
aI0
aI0
aI0
aI0
aI0
aF3.40132583681119e-06
aF1.0
atp1932
a((lp1933
S'31019'
p1934
aS'60937'
p1935
aS'12389'
p1936
aS'16509'
p1937
aS'6461'
p1938
aS'1273'
p1939
a(lp1940
I0
aI0
aI0
aI0
aF3.40132583681119e-06
aF1.0
atp1941
a((lp1942
S'6720'
p1943
aS'1853'
p1944
aS'1764'
p1945
aS'60937'
p1946
aS'12389'
p1947
aS'16509'
p1948
aS'6461'
p1949
aS'1273'
p1950
a(lp1951
I0
aI0
aI0
aI0
aI0
aI0
aF3.40132583681119e-06
aF1.0
atp1952
a((lp1953
S'202018'
p1954
aS'60937'
p1955
aS'12389'
p1956
aS'16509'
p1957
aS'6461'
p1958
aS'1273'
p1959
a(lp1960
I0
aI0
aI0
aI0
aF3.40132583681119e-06
aF1.0
atp1961
a((lp1962
S'38883'
p1963
aS'4826'
p1964
aS'6939'
p1965
aS'60937'
p1966
aS'12389'
p1967
aS'16509'
p1968
aS'6461'
p1969
aS'1273'
p1970
a(lp1971
I0
aI0
aI0
aI0
aI0
aI0
aF3.40132583681119e-06
aF1.0
atp1972
a((lp1973
S'2895'
p1974
aS'3267'
p1975
aS'60937'
p1976
aS'12389'
p1977
aS'16509'
p1978
aS'6461'
p1979
aS'1273'
p1980
a(lp1981
I0
aI0
aI0
aI0
aI0
aF3.40132583681119e-06
aF1.0
atp1982
a((lp1983
S'12779'
p1984
aS'60937'
p1985
aS'12389'
p1986
aS'16509'
p1987
aS'6461'
p1988
aS'1273'
p1989
a(lp1990
I0
aI0
aI0
aI0
aF3.40132583681119e-06
aF1.0
atp1991
a((lp1992
S'59715'
p1993
aS'29449'
p1994
aS'15589'
p1995
aS'60937'
p1996
aS'12389'
p1997
aS'16509'
p1998
aS'6461'
p1999
aS'1273'
p2000
a(lp2001
I0
aI0
aI0
aI0
aI0
aI0
aF3.40132583681119e-06
aF1.0
atp2002
a((lp2003
S'34288'
p2004
aS'60937'
p2005
aS'12389'
p2006
aS'16509'
p2007
aS'6461'
p2008
aS'1273'
p2009
a(lp2010
I0
aI0
aI0
aI0
aF3.40132583681119e-06
aF1.0
atp2011
a((lp2012
S'38883'
p2013
aS'24130'
p2014
aS'7545'
p2015
aS'6939'
p2016
aS'60937'
p2017
aS'12389'
p2018
aS'16509'
p2019
aS'6461'
p2020
aS'1273'
p2021
a(lp2022
I0
aI0
aI0
aI0
aI0
aI0
aI0
aF3.40132583681119e-06
aF1.0
atp2023
a((lp2024
S'8447'
p2025
aS'60937'
p2026
aS'12389'
p2027
aS'16509'
p2028
aS'6461'
p2029
aS'1273'
p2030
a(lp2031
I0
aI0
aI0
aI0
aF3.40132583681119e-06
aF1.0
atp2032
a((lp2033
S'200130'
p2034
aS'60937'
p2035
aS'12389'
p2036
aS'16509'
p2037
aS'6461'
p2038
aS'1273'
p2039
a(lp2040
I0
aI0
aI0
aI0
aF3.40132583681119e-06
aF1.0
atp2041
a((lp2042
S'28917'
p2043
aS'60937'
p2044
aS'12389'
p2045
aS'16509'
p2046
aS'6461'
p2047
aS'1273'
p2048
a(lp2049
I0
aI0
aI0
aI0
aF3.40132583681119e-06
aF1.0
atp2050
a((lp2051
S'54073'
p2052
aS'2044'
p2053
aS'6939'
p2054
aS'60937'
p2055
aS'12389'
p2056
aS'16509'
p2057
aS'6461'
p2058
aS'1273'
p2059
a(lp2060
I0
aI0
aI0
aI0
aI0
aI0
aF3.40132583681119e-06
aF1.0
atp2061
a((lp2062
S'12637'
p2063
aS'60937'
p2064
aS'12389'
p2065
aS'16509'
p2066
aS'6461'
p2067
aS'1273'
p2068
a(lp2069
I0
aI0
aI0
aI0
aF3.40132583681119e-06
aF1.0
atp2070
a((lp2071
S'25220'
p2072
aS'60937'
p2073
aS'12389'
p2074
aS'16509'
p2075
aS'6461'
p2076
aS'1273'
p2077
a(lp2078
I0
aI0
aI0
aI0
aF3.40132583681119e-06
aF1.0
atp2079
a((lp2080
S'1916'
p2081
aS'20080'
p2082
aS'60937'
p2083
aS'12389'
p2084
aS'16509'
p2085
aS'6461'
p2086
aS'1273'
p2087
a(lp2088
I0
aI0
aI0
aI0
aI0
aF3.40132583681119e-06
aF1.0
atp2089
a((lp2090
S'41695'
p2091
aS'8468'
p2092
aS'60937'
p2093
aS'12389'
p2094
aS'16509'
p2095
aS'6461'
p2096
aS'1273'
p2097
a(lp2098
I0
aI0
aI0
aI0
aI0
aF3.40132583681119e-06
aF1.0
atp2099
a((lp2100
S'29140'
p2101
aS'60937'
p2102
aS'12389'
p2103
aS'16509'
p2104
aS'6461'
p2105
aS'1273'
p2106
a(lp2107
I0
aI0
aI0
aI0
aF3.40132583681119e-06
aF1.0
atp2108
a((lp2109
S'4826'
p2110
aS'6939'
p2111
aS'60937'
p2112
aS'12389'
p2113
aS'16509'
p2114
aS'6461'
p2115
aS'1273'
p2116
a(lp2117
I0
aI0
aI0
aI0
aI0
aF3.40132583681119e-06
aF1.0
atp2118
a((lp2119
S'20932'
p2120
aS'60937'
p2121
aS'12389'
p2122
aS'16509'
p2123
aS'6461'
p2124
aS'1273'
p2125
a(lp2126
I0
aI0
aI0
aI0
aF3.40132583681119e-06
aF1.0
atp2127
a((lp2128
S'8492'
p2129
aS'9002'
p2130
aS'60937'
p2131
aS'12389'
p2132
aS'16509'
p2133
aS'6461'
p2134
aS'1273'
p2135
a(lp2136
I0
aI0
aI0
aI0
aI0
aF3.40132583681119e-06
aF1.0
atp2137
a((lp2138
S'30844'
p2139
aS'60937'
p2140
aS'12389'
p2141
aS'16509'
p2142
aS'6461'
p2143
aS'1273'
p2144
a(lp2145
I0
aI0
aI0
aI0
aF3.40132583681119e-06
aF1.0
atp2146
a((lp2147
S'25091'
p2148
aS'60937'
p2149
aS'12389'
p2150
aS'16509'
p2151
aS'6461'
p2152
aS'1273'
p2153
a(lp2154
I0
aI0
aI0
aI0
aF3.40132583681119e-06
aF1.0
atp2155
a((lp2156
S'48285'
p2157
aS'16150'
p2158
aS'60937'
p2159
aS'12389'
p2160
aS'16509'
p2161
aS'6461'
p2162
aS'1273'
p2163
a(lp2164
I0
aI0
aI0
aI0
aI0
aF3.40132583681119e-06
aF1.0
atp2165
a((lp2166
S'25160'
p2167
aS'60937'
p2168
aS'12389'
p2169
aS'16509'
p2170
aS'6461'
p2171
aS'1273'
p2172
a(lp2173
I0
aI0
aI0
aI0
aF3.40132583681119e-06
aF1.0
atp2174
a((lp2175
S'3267'
p2176
aS'60937'
p2177
aS'12389'
p2178
aS'16509'
p2179
aS'6461'
p2180
aS'1273'
p2181
a(lp2182
I0
aI0
aI0
aI0
aF3.40132583681119e-06
aF1.0
atp2183
a((lp2184
S'1103'
p2185
aS'60937'
p2186
aS'12389'
p2187
aS'16509'
p2188
aS'6461'
p2189
aS'1273'
p2190
a(lp2191
I0
aI0
aI0
aI0
aF3.40132583681119e-06
aF1.0
atp2192
a((lp2193
S'3333'
p2194
aS'60937'
p2195
aS'12389'
p2196
aS'16509'
p2197
aS'6461'
p2198
aS'1273'
p2199
a(lp2200
I0
aI0
aI0
aI0
aF3.40132583681119e-06
aF1.0
atp2201
a((lp2202
S'8359'
p2203
aS'60937'
p2204
aS'12389'
p2205
aS'16509'
p2206
aS'6461'
p2207
aS'1273'
p2208
a(lp2209
I0
aI0
aI0
aI0
aF3.40132583681119e-06
aF1.0
atp2210
a((lp2211
S'37100'
p2212
aS'60937'
p2213
aS'12389'
p2214
aS'16509'
p2215
aS'6461'
p2216
aS'1273'
p2217
a(lp2218
I0
aI0
aI0
aI0
aF3.40132583681119e-06
aF1.0
atp2219
a((lp2220
S'13030'
p2221
aS'60937'
p2222
aS'12389'
p2223
aS'16509'
p2224
aS'6461'
p2225
aS'1273'
p2226
a(lp2227
I0
aI0
aI0
aI0
aF3.40132583681119e-06
aF1.0
atp2228
a((lp2229
S'19754'
p2230
aS'6939'
p2231
aS'60937'
p2232
aS'12389'
p2233
aS'16509'
p2234
aS'6461'
p2235
aS'1273'
p2236
a(lp2237
I0
aI0
aI0
aI0
aI0
aF3.40132583681119e-06
aF1.0
atp2238
a((lp2239
S'293'
p2240
aS'6939'
p2241
aS'60937'
p2242
aS'12389'
p2243
aS'16509'
p2244
aS'6461'
p2245
aS'1273'
p2246
a(lp2247
I0
aI0
aI0
aI0
aI0
aF3.40132583681119e-06
aF1.0
atp2248
a((lp2249
S'48526'
p2250
aS'60937'
p2251
aS'12389'
p2252
aS'16509'
p2253
aS'6461'
p2254
aS'1273'
p2255
a(lp2256
I0
aI0
aI0
aI0
aF3.40132583681119e-06
aF1.0
atp2257
a((lp2258
S'20562'
p2259
aS'60937'
p2260
aS'12389'
p2261
aS'16509'
p2262
aS'6461'
p2263
aS'1273'
p2264
a(lp2265
I0
aI0
aI0
aI0
aF3.40132583681119e-06
aF1.0
atp2266
a((lp2267
S'41095'
p2268
aS'60937'
p2269
aS'12389'
p2270
aS'16509'
p2271
aS'6461'
p2272
aS'1273'
p2273
a(lp2274
I0
aI0
aI0
aI0
aF3.40132583681119e-06
aF1.0
atp2275
a((lp2276
S'6939'
p2277
aS'60937'
p2278
aS'12389'
p2279
aS'16509'
p2280
aS'6461'
p2281
aS'1273'
p2282
a(lp2283
I0
aI0
aI0
aI0
aF3.40132583681119e-06
aF1.0
atp2284
a((lp2285
S'40191'
p2286
aS'6939'
p2287
aS'60937'
p2288
aS'12389'
p2289
aS'16509'
p2290
aS'6461'
p2291
aS'1273'
p2292
a(lp2293
I0
aI0
aI0
aI0
aI0
aF3.40132583681119e-06
aF1.0
atp2294
a((lp2295
S'31500'
p2296
aS'3267'
p2297
aS'60937'
p2298
aS'12389'
p2299
aS'16509'
p2300
aS'6461'
p2301
aS'1273'
p2302
a(lp2303
I0
aI0
aI0
aI0
aI0
aF3.40132583681119e-06
aF1.0
atp2304
a((lp2305
S'56730'
p2306
aS'31463'
p2307
aS'50300'
p2308
aS'60937'
p2309
aS'12389'
p2310
aS'16509'
p2311
aS'6461'
p2312
aS'1273'
p2313
a(lp2314
I0
aI0
aI0
aI0
aI0
aI0
aF3.40132583681119e-06
aF1.0
atp2315
a((lp2316
S'24482'
p2317
aS'60937'
p2318
aS'12389'
p2319
aS'16509'
p2320
aS'6461'
p2321
aS'1273'
p2322
a(lp2323
I0
aI0
aI0
aI0
aF3.40132583681119e-06
aF1.0
atp2324
a((lp2325
S'28571'
p2326
aS'1251'
p2327
aS'20080'
p2328
aS'60937'
p2329
aS'12389'
p2330
aS'16509'
p2331
aS'6461'
p2332
aS'1273'
p2333
a(lp2334
I0
aI0
aI0
aI0
aI0
aI0
aF3.40132583681119e-06
aF1.0
atp2335
a((lp2336
S'39821'
p2337
aS'28917'
p2338
aS'60937'
p2339
aS'12389'
p2340
aS'16509'
p2341
aS'6461'
p2342
aS'1273'
p2343
a(lp2344
I0
aI0
aI0
aI0
aI0
aF3.40132583681119e-06
aF1.0
atp2345
a((lp2346
S'8468'
p2347
aS'60937'
p2348
aS'12389'
p2349
aS'16509'
p2350
aS'6461'
p2351
aS'1273'
p2352
a(lp2353
I0
aI0
aI0
aI0
aF3.40132583681119e-06
aF1.0
atp2354
a((lp2355
S'8331'
p2356
aS'39792'
p2357
aS'60937'
p2358
aS'12389'
p2359
aS'16509'
p2360
aS'6461'
p2361
aS'1273'
p2362
a(lp2363
I0
aI0
aI0
aI0
aI0
aF3.40132583681119e-06
aF1.0
atp2364
a((lp2365
S'9002'
p2366
aS'60937'
p2367
aS'12389'
p2368
aS'16509'
p2369
aS'6461'
p2370
aS'1273'
p2371
a(lp2372
I0
aI0
aI0
aI0
aF3.40132583681119e-06
aF1.0
atp2373
a((lp2374
S'8426'
p2375
aS'6777'
p2376
aS'60937'
p2377
aS'12389'
p2378
aS'16509'
p2379
aS'6461'
p2380
aS'1273'
p2381
a(lp2382
I0
aI0
aI0
aI0
aI0
aF3.40132583681119e-06
aF1.0
atp2383
a((lp2384
S'30132'
p2385
aS'60937'
p2386
aS'12389'
p2387
aS'16509'
p2388
aS'6461'
p2389
aS'1273'
p2390
a(lp2391
I0
aI0
aI0
aI0
aF3.40132583681119e-06
aF1.0
atp2392
a((lp2393
S'8758'
p2394
aS'15576'
p2395
aS'6772'
p2396
aS'13030'
p2397
aS'60937'
p2398
aS'12389'
p2399
aS'16509'
p2400
aS'6461'
p2401
aS'1273'
p2402
a(lp2403
I0
aI0
aI0
aI0
aI0
aI0
aI0
aF3.40132583681119e-06
aF1.0
atp2404
a((lp2405
S'16559'
p2406
aS'6939'
p2407
aS'60937'
p2408
aS'12389'
p2409
aS'16509'
p2410
aS'6461'
p2411
aS'1273'
p2412
a(lp2413
I0
aI0
aI0
aI0
aI0
aF3.40132583681119e-06
aF1.0
atp2414
a((lp2415
S'4608'
p2416
aS'24130'
p2417
aS'7545'
p2418
aS'6939'
p2419
aS'60937'
p2420
aS'12389'
p2421
aS'16509'
p2422
aS'6461'
p2423
aS'1273'
p2424
a(lp2425
I0
aI0
aI0
aI0
aI0
aI0
aI0
aF3.40132583681119e-06
aF1.0
atp2426
a((lp2427
S'9304'
p2428
aS'60937'
p2429
aS'12389'
p2430
aS'16509'
p2431
aS'6461'
p2432
aS'1273'
p2433
a(lp2434
I0
aI0
aI0
aI0
aF3.40132583681119e-06
aF1.0
atp2435
a((lp2436
S'28294'
p2437
aS'28667'
p2438
aS'28124'
p2439
aS'18479'
p2440
aS'7162'
p2441
aS'12989'
p2442
aS'60937'
p2443
aS'12389'
p2444
aS'16509'
p2445
aS'6461'
p2446
aS'1273'
p2447
a(lp2448
I0
aI0
aI0
aI0
aI0
aI0
aI0
aI0
aI0
aF3.40132583681119e-06
aF1.0
atp2449
a((lp2450
S'50763'
p2451
aS'60937'
p2452
aS'12389'
p2453
aS'16509'
p2454
aS'6461'
p2455
aS'1273'
p2456
a(lp2457
I0
aI0
aI0
aI0
aF3.40132583681119e-06
aF1.0
atp2458
a((lp2459
S'52888'
p2460
aS'1251'
p2461
aS'20080'
p2462
aS'60937'
p2463
aS'12389'
p2464
aS'16509'
p2465
aS'6461'
p2466
aS'1273'
p2467
a(lp2468
I0
aI0
aI0
aI0
aI0
aI0
aF3.40132583681119e-06
aF1.0
atp2469
a((lp2470
S'53070'
p2471
aS'12989'
p2472
aS'60937'
p2473
aS'12389'
p2474
aS'16509'
p2475
aS'6461'
p2476
aS'1273'
p2477
a(lp2478
I0
aI0
aI0
aI0
aI0
aF3.40132583681119e-06
aF1.0
atp2479
a((lp2480
S'9189'
p2481
aS'44953'
p2482
aS'60937'
p2483
aS'12389'
p2484
aS'16509'
p2485
aS'6461'
p2486
aS'1273'
p2487
a(lp2488
I0
aI0
aI0
aI0
aI0
aF3.40132583681119e-06
aF1.0
atp2489
a((lp2490
S'6881'
p2491
aS'29208'
p2492
aS'60937'
p2493
aS'12389'
p2494
aS'16509'
p2495
aS'6461'
p2496
aS'1273'
p2497
a(lp2498
I0
aI0
aI0
aI0
aI0
aF3.40132583681119e-06
aF1.0
atp2499
a((lp2500
S'16700'
p2501
aS'6939'
p2502
aS'60937'
p2503
aS'12389'
p2504
aS'16509'
p2505
aS'6461'
p2506
aS'1273'
p2507
a(lp2508
I0
aI0
aI0
aI0
aI0
aF3.40132583681119e-06
aF1.0
atp2509
a((lp2510
S'6720'
p2511
aS'8447'
p2512
aS'60937'
p2513
aS'12389'
p2514
aS'16509'
p2515
aS'6461'
p2516
aS'1273'
p2517
a(lp2518
I0
aI0
aI0
aI0
aI0
aF3.40132583681119e-06
aF1.0
atp2519
a((lp2520
S'25152'
p2521
aS'6939'
p2522
aS'60937'
p2523
aS'12389'
p2524
aS'16509'
p2525
aS'6461'
p2526
aS'1273'
p2527
a(lp2528
I0
aI0
aI0
aI0
aI0
aF3.40132583681119e-06
aF1.0
atp2529
a((lp2530
S'28571'
p2531
aS'1916'
p2532
aS'20080'
p2533
aS'60937'
p2534
aS'12389'
p2535
aS'16509'
p2536
aS'6461'
p2537
aS'1273'
p2538
a(lp2539
I0
aI0
aI0
aI0
aI0
aI0
aF3.40132583681119e-06
aF1.0
atp2540
a((lp2541
S'8596'
p2542
aS'1764'
p2543
aS'60937'
p2544
aS'12389'
p2545
aS'16509'
p2546
aS'6461'
p2547
aS'1273'
p2548
a(lp2549
I0
aI0
aI0
aI0
aI0
aF3.40132583681119e-06
aF1.0
atp2550
a((lp2551
S'1853'
p2552
aS'1764'
p2553
aS'60937'
p2554
aS'12389'
p2555
aS'16509'
p2556
aS'6461'
p2557
aS'1273'
p2558
a(lp2559
I0
aI0
aI0
aI0
aI0
aF3.40132583681119e-06
aF1.0
atp2560
a((lp2561
S'57381'
p2562
aS'42708'
p2563
aS'60937'
p2564
aS'12389'
p2565
aS'16509'
p2566
aS'6461'
p2567
aS'1273'
p2568
a(lp2569
I0
aI0
aI0
aI0
aI0
aF3.40132583681119e-06
aF1.0
atp2570
a((lp2571
S'15435'
p2572
aS'60937'
p2573
aS'12389'
p2574
aS'16509'
p2575
aS'6461'
p2576
aS'1273'
p2577
a(lp2578
I0
aI0
aI0
aI0
aF3.40132583681119e-06
aF1.0
atp2579
a((lp2580
S'1280'
p2581
aS'6939'
p2582
aS'60937'
p2583
aS'12389'
p2584
aS'16509'
p2585
aS'6461'
p2586
aS'1273'
p2587
a(lp2588
I0
aI0
aI0
aI0
aI0
aF3.40132583681119e-06
aF1.0
atp2589
a((lp2590
S'12859'
p2591
aS'60937'
p2592
aS'12389'
p2593
aS'16509'
p2594
aS'6461'
p2595
aS'1273'
p2596
a(lp2597
I0
aI0
aI0
aI0
aF3.40132583681119e-06
aF1.0
atp2598
asssS'features'
p2599
g4
(g5
(g9
(I0
I0
I2
I83
S't\x00\x00d\x01\x00\x84\x00\x00\x83\x01\x00S'
p2600
(Ng9
(I0
I0
I1
I83
S'd\x00\x00S'
p2601
(Ntp2602
(S'None'
p2603
tp2604
(tS'/home/shicho/projects/bgp_classifier/classification/features.py'
p2605
S'<lambda>'
p2606
I31
g18
(t(ttp2607
Rp2608
tp2609
(g22
tp2610
(tS'/home/shicho/projects/bgp_classifier/classification/features.py'
p2611
g2606
I31
g18
(t(ttp2612
Rp2613
cfeatures
__dict__
g2606
NN(dp2614
tp2615
Rp2616
tp2617
Rp2618
S'186.96.128.0/18'
p2619
g4
(g5
(g2608
cfeatures
__dict__
g2606
NN(dp2620
tp2621
Rp2622
tp2623
Rp2624
S'propagation'
p2625
F0.989247311827957
sS'edit_distance'
p2626
(dp2627
S'pfx'
p2628
g4
(g5
(g9
(I0
I0
I2
I83
S't\x00\x00d\x01\x00\x84\x00\x00\x83\x01\x00S'
p2629
(Ng9
(I0
I0
I1
I83
S't\x00\x00\x83\x00\x00S'
p2630
(Ntp2631
(g14
tp2632
(tS'/home/shicho/projects/bgp_classifier/classification/features.py'
p2633
S'<lambda>'
p2634
I753
S''
p2635
(t(ttp2636
Rp2637
tp2638
(g22
tp2639
(tS'/home/shicho/projects/bgp_classifier/classification/features.py'
p2640
g2634
I753
S''
p2641
(t(ttp2642
Rp2643
cfeatures
__dict__
g2634
NN(dp2644
tp2645
Rp2646
tp2647
Rp2648
sS'asn'
p2649
g4
(g5
(g9
(I0
I0
I2
I83
S't\x00\x00d\x01\x00\x84\x00\x00\x83\x01\x00S'
p2650
(Ng9
(I0
I0
I1
I83
S'd\x00\x00S'
p2651
(Ntp2652
(g2603
tp2653
(tS'/home/shicho/projects/bgp_classifier/classification/features.py'
p2654
g2634
I746
S''
p2655
(t(ttp2656
Rp2657
tp2658
(g22
tp2659
(tS'/home/shicho/projects/bgp_classifier/classification/features.py'
p2660
g2634
I746
S''
p2661
(t(ttp2662
Rp2663
cfeatures
__dict__
g2634
NN(dp2664
tp2665
Rp2666
tp2667
Rp2668
S'60937'
p2669
g4
(g5
(g2657
cfeatures
__dict__
g2634
NN(dp2670
tp2671
Rp2672
tp2673
Rp2674
S'11750'
p2675
I5
ssssS'rarity'
p2676
(dp2677
S'anon_paths'
p2678
g4
(g5
(g9
(I0
I0
I2
I83
S't\x00\x00d\x01\x00\x84\x00\x00\x83\x01\x00S'
p2679
(Ng9
(I0
I0
I2
I83
S't\x00\x00d\x01\x00\x84\x00\x00\x83\x01\x00S'
p2680
(Ng9
(I0
I0
I2
I83
S't\x00\x00d\x01\x00\x84\x00\x00\x83\x01\x00S'
p2681
(Ng9
(I0
I0
I1
I83
S'd\x01\x00S'
p2682
(NI0
tp2683
(t(tS'/home/shicho/projects/bgp_classifier/classification/features.py'
p2684
g2634
I430
S''
p2685
(t(ttp2686
Rp2687
tp2688
(g22
tp2689
(tS'/home/shicho/projects/bgp_classifier/classification/features.py'
p2690
g2634
I429
S'\x00\x01'
p2691
(t(ttp2692
Rp2693
tp2694
(g22
tp2695
(tS'/home/shicho/projects/bgp_classifier/classification/features.py'
p2696
g2634
I429
S''
p2697
(t(ttp2698
Rp2699
tp2700
(g22
tp2701
(tS'/home/shicho/projects/bgp_classifier/classification/features.py'
p2702
g2634
I429
S''
p2703
(t(ttp2704
Rp2705
cfeatures
__dict__
g2634
NN(dp2706
tp2707
Rp2708
tp2709
Rp2710
sS'depth'
p2711
g4
(g5
(g9
(I0
I0
I1
I83
S't\x00\x00\x83\x00\x00S'
p2712
(Ntp2713
(g14
tp2714
(tS'/home/shicho/projects/bgp_classifier/classification/features.py'
p2715
g2634
I427
S''
p2716
(t(ttp2717
Rp2718
cfeatures
__dict__
g2634
NN(dp2719
tp2720
Rp2721
tp2722
Rp2723
g1870
(lp2724
ssS'hijacker_score'
p2725
g4
(g5
(g9
(I0
I0
I2
I83
S't\x00\x00d\x01\x00\x84\x00\x00\x83\x01\x00S'
p2726
(Ng9
(I0
I0
I1
I83
S't\x00\x00\x83\x00\x00S'
p2727
(Ntp2728
(S'set'
p2729
tp2730
(tS'/home/shicho/projects/bgp_classifier/classification/features.py'
p2731
g2634
I431
S''
p2732
(t(ttp2733
Rp2734
tp2735
(g22
tp2736
(tS'/home/shicho/projects/bgp_classifier/classification/features.py'
p2737
g2634
I431
S''
p2738
(t(ttp2739
Rp2740
cfeatures
__dict__
g2634
NN(dp2741
tp2742
Rp2743
tp2744
Rp2745
g1870
g4
(g5
(g2734
cfeatures
__dict__
g2634
NN(dp2746
tp2747
Rp2748
tp2749
Rp2750
g2669
c__builtin__
set
p2751
((lp2752
F0.0
atp2753
Rp2754
sssS'freq'
p2755
g4
(g5
(g9
(I0
I0
I2
I83
S't\x00\x00d\x01\x00\x84\x00\x00\x83\x01\x00S'
p2756
(Ng9
(I0
I0
I2
I83
S't\x00\x00d\x01\x00\x84\x00\x00\x83\x01\x00S'
p2757
(Ng9
(I0
I0
I1
I83
S'd\x01\x00S'
p2758
(NI0
tp2759
(t(tS'/home/shicho/projects/bgp_classifier/classification/features.py'
p2760
g2634
I428
S''
p2761
(t(ttp2762
Rp2763
tp2764
(g22
tp2765
(tS'/home/shicho/projects/bgp_classifier/classification/features.py'
p2766
g2634
I428
S''
p2767
(t(ttp2768
Rp2769
tp2770
(g22
tp2771
(tS'/home/shicho/projects/bgp_classifier/classification/features.py'
p2772
g2634
I428
S''
p2773
(t(ttp2774
Rp2775
cfeatures
__dict__
g2634
NN(dp2776
tp2777
Rp2778
tp2779
Rp2780
g1870
g4
(g5
(g2769
cfeatures
__dict__
g2634
NN(dp2781
tp2782
Rp2783
tp2784
Rp2785
S'hijacked'
p2786
g4
(g5
(g2763
cfeatures
__dict__
g2634
NN(dp2787
tp2788
Rp2789
tp2790
Rp2791
I0
I72
ssssS'sum_up'
p2792
(dp2793
g2786
(lp2794
F3.40132583681e-06
aF3.40132583681e-06
aF3.40132583681e-06
aF3.40132583681e-06
aF3.40132583681e-06
aF3.40132583681e-06
aF3.40132583681e-06
aF3.40132583681e-06
aF3.40132583681e-06
aF3.40132583681e-06
aF3.40132583681e-06
aF3.40132583681e-06
aF3.40132583681e-06
aF3.40132583681e-06
aF3.40132583681e-06
aF3.40132583681e-06
aF3.40132583681e-06
aF3.40132583681e-06
aF3.40132583681e-06
aF3.40132583681e-06
aF3.40132583681e-06
aF3.40132583681e-06
aF3.40132583681e-06
aF3.40132583681e-06
aF3.40132583681e-06
aF3.40132583681e-06
aF3.40132583681e-06
aF3.40132583681e-06
aF3.40132583681e-06
aF3.40132583681e-06
aF3.40132583681e-06
aF3.40132583681e-06
aF3.40132583681e-06
aF3.40132583681e-06
aF3.40132583681e-06
aF3.40132583681e-06
aF3.40132583681e-06
aF3.40132583681e-06
aF3.40132583681e-06
aF3.40132583681e-06
aF3.40132583681e-06
aF3.40132583681e-06
aF3.40132583681e-06
aF3.40132583681e-06
aF3.40132583681e-06
aF3.40132583681e-06
aF3.40132583681e-06
aF3.40132583681e-06
aF3.40132583681e-06
aF3.40132583681e-06
aF3.40132583681e-06
aF3.40132583681e-06
aF3.40132583681e-06
aF3.40132583681e-06
aF3.40132583681e-06
aF3.40132583681e-06
aF3.40132583681e-06
aF3.40132583681e-06
aF3.40132583681e-06
aF3.40132583681e-06
aF3.40132583681e-06
aF3.40132583681e-06
aF3.40132583681e-06
aF3.40132583681e-06
aF3.40132583681e-06
aF3.40132583681e-06
aF3.40132583681e-06
aF3.40132583681e-06
aF3.40132583681e-06
aF3.40132583681e-06
aF3.40132583681e-06
aF3.40132583681e-06
asssS'submoas'
p2795
(dp2796
S'is_multi'
p2797
I0
ssS'rarity_new'
p2798
(dp2799
S'union'
p2800
(dp2801
S'1273'
p2802
F0.0
ssS'cosin'
p2803
(dp2804
g2802
cnumpy.core.multiarray
scalar
p2805
(cnumpy
dtype
p2806
(S'f8'
p2807
I0
I1
tp2808
Rp2809
(I3
S'<'
p2810
NNNI-1
I-1
I0
tp2811
bS'\x00\x80\xbd\xefS\xe0\xf7>'
p2812
tp2813
Rp2814
sssS'num_of_valleys'
p2815
(dp2816
S'anon_ases'
p2817
g4
(g5
(g9
(I0
I0
I2
I83
S't\x00\x00d\x01\x00\x84\x00\x00\x83\x01\x00S'
p2818
(Ng9
(I0
I0
I2
I83
S't\x00\x00d\x01\x00\x84\x00\x00\x83\x01\x00S'
p2819
(Ng9
(I0
I0
I2
I83
S't\x00\x00d\x01\x00\x84\x00\x00\x83\x01\x00S'
p2820
(Ng9
(I0
I0
I1
I83
S'd\x01\x00S'
p2821
(NI0
tp2822
(t(tS'/home/shicho/projects/bgp_classifier/classification/features.py'
p2823
g2634
I367
S''
p2824
(t(ttp2825
Rp2826
tp2827
(g22
tp2828
(tS'/home/shicho/projects/bgp_classifier/classification/features.py'
p2829
g2634
I367
S''
p2830
(t(ttp2831
Rp2832
tp2833
(g22
tp2834
(tS'/home/shicho/projects/bgp_classifier/classification/features.py'
p2835
g2634
I366
S'\x03\x01'
p2836
(t(ttp2837
Rp2838
tp2839
(g22
tp2840
(tS'/home/shicho/projects/bgp_classifier/classification/features.py'
p2841
g2634
I366
S''
p2842
(t(ttp2843
Rp2844
cfeatures
__dict__
g2634
NN(dp2845
tp2846
Rp2847
tp2848
Rp2849
g49
g4
(g5
(g2838
cfeatures
__dict__
g2634
NN(dp2850
tp2851
Rp2852
tp2853
Rp2854
g2786
g4
(g5
(g2832
cfeatures
__dict__
g2634
NN(dp2855
tp2856
Rp2857
tp2858
Rp2859
I1
g4
(g5
(g2826
cfeatures
__dict__
g2634
NN(dp2860
tp2861
Rp2862
tp2863
Rp2864
S'60937'
p2865
I35
sS'1764'
p2866
I1
sS'20080'
p2867
I1
sssssg2711
(lp2868
F1.0
aF1.0
aF1.0
aF1.0
aF1.0
aF1.0
aF1.0
aF1.0
aF1.0
aF1.0
aF1.0
aF1.0
aF1.0
aF1.0
aF1.0
aF1.0
aF1.0
aF1.0
aF1.0
aF1.0
aF1.0
aF1.0
aF1.0
aF1.0
aF1.0
aF1.0
aF1.0
aF1.0
aF1.0
aF1.0
aF1.0
aF1.0
aF0.5831506426445429
aF1.0
aF1.0
aF1.0
asg2755
g4
(g5
(g9
(I0
I0
I2
I83
S't\x00\x00d\x01\x00\x84\x00\x00\x83\x01\x00S'
p2869
(Ng9
(I0
I0
I1
I83
S'd\x01\x00S'
p2870
(NI0
tp2871
(t(tS'/home/shicho/projects/bgp_classifier/classification/features.py'
p2872
g2634
I365
S''
p2873
(t(ttp2874
Rp2875
tp2876
(g22
tp2877
(tS'/home/shicho/projects/bgp_classifier/classification/features.py'
p2878
g2634
I365
S''
p2879
(t(ttp2880
Rp2881
cfeatures
__dict__
g2634
NN(dp2882
tp2883
Rp2884
tp2885
Rp2886
g2786
g4
(g5
(g2875
cfeatures
__dict__
g2634
NN(dp2887
tp2888
Rp2889
tp2890
Rp2891
I0
I37
sI1
I35
ssssS'prepending'
p2892
F0.0
sS'moas'
p2893
(dp2894
g2797
I0
ssssS'verification'
p2895
(dp2896
S'hijacker_in_the_middle'
p2897
I01
sS'innocent_as_in_the_middle'
p2898
I00
sS'hijacker_as_origin_as'
p2899
I00
sS'innocent_as_as_origin_as'
p2900
I01
sS'all_paths_with_hijacker'
p2901
(dp2902
g2669
(lp2903
(lp2904
S'30844'
p2905
aS'60937'
p2906
aS'12389'
p2907
aS'16509'
p2908
aS'6461'
p2909
aS'1273'
p2910
aa(lp2911
S'6939'
p2912
aS'60937'
p2913
aS'12389'
p2914
aS'16509'
p2915
aS'6461'
p2916
ag2910
aa(lp2917
S'200130'
p2918
aS'60937'
p2919
aS'12389'
p2920
aS'16509'
p2921
aS'6461'
p2922
ag2910
aa(lp2923
S'37100'
p2924
aS'60937'
p2925
aS'12389'
p2926
aS'16509'
p2927
aS'6461'
p2928
ag2910
aa(lp2929
S'293'
p2930
aS'6939'
p2931
aS'60937'
p2932
aS'12389'
p2933
aS'16509'
p2934
aS'6461'
p2935
ag2910
aa(lp2936
S'13030'
p2937
aS'60937'
p2938
aS'12389'
p2939
aS'16509'
p2940
aS'6461'
p2941
ag2910
aa(lp2942
S'40191'
p2943
aS'6939'
p2944
aS'60937'
p2945
aS'12389'
p2946
aS'16509'
p2947
aS'6461'
p2948
ag2910
aa(lp2949
S'202018'
p2950
aS'60937'
p2951
aS'12389'
p2952
aS'16509'
p2953
aS'6461'
p2954
ag2910
aa(lp2955
S'8492'
p2956
aS'9002'
p2957
aS'60937'
p2958
aS'12389'
p2959
aS'16509'
p2960
aS'6461'
p2961
ag2910
aa(lp2962
S'6939'
p2963
aS'60937'
p2964
aS'12389'
p2965
aS'16509'
p2966
aS'6461'
p2967
ag2910
aa(lp2968
S'41095'
p2969
aS'60937'
p2970
aS'12389'
p2971
aS'16509'
p2972
aS'6461'
p2973
ag2910
aa(lp2974
S'16559'
p2975
aS'6939'
p2976
aS'60937'
p2977
aS'12389'
p2978
aS'16509'
p2979
aS'6461'
p2980
ag2910
aa(lp2981
S'6939'
p2982
aS'60937'
p2983
aS'12389'
p2984
aS'16509'
p2985
aS'6461'
p2986
ag2910
aa(lp2987
S'4826'
p2988
aS'6939'
p2989
aS'60937'
p2990
aS'12389'
p2991
aS'16509'
p2992
aS'6461'
p2993
ag2910
aa(lp2994
S'58511'
p2995
aS'2764'
p2996
aS'7545'
p2997
aS'6939'
p2998
aS'60937'
p2999
aS'12389'
p3000
aS'16509'
p3001
aS'6461'
p3002
ag2910
aa(lp3003
S'58511'
p3004
aS'2764'
p3005
aS'7545'
p3006
aS'6939'
p3007
aS'60937'
p3008
aS'12389'
p3009
aS'16509'
p3010
aS'6461'
p3011
ag2910
aa(lp3012
S'59715'
p3013
aS'29449'
p3014
aS'15589'
p3015
aS'60937'
p3016
aS'12389'
p3017
aS'16509'
p3018
aS'6461'
p3019
ag2910
aa(lp3020
S'58511'
p3021
aS'2764'
p3022
aS'7545'
p3023
aS'6939'
p3024
aS'60937'
p3025
aS'12389'
p3026
aS'16509'
p3027
aS'6461'
p3028
ag2910
aa(lp3029
S'58511'
p3030
aS'2764'
p3031
aS'7545'
p3032
aS'6939'
p3033
aS'60937'
p3034
aS'12389'
p3035
aS'16509'
p3036
aS'6461'
p3037
ag2910
aa(lp3038
S'38883'
p3039
aS'24130'
p3040
aS'7545'
p3041
aS'6939'
p3042
aS'60937'
p3043
aS'12389'
p3044
aS'16509'
p3045
aS'6461'
p3046
ag2910
aa(lp3047
S'38883'
p3048
aS'4826'
p3049
aS'6939'
p3050
aS'60937'
p3051
aS'12389'
p3052
aS'16509'
p3053
aS'6461'
p3054
ag2910
aa(lp3055
S'24482'
p3056
aS'60937'
p3057
aS'12389'
p3058
aS'16509'
p3059
aS'6461'
p3060
ag2910
aa(lp3061
S'19754'
p3062
aS'6939'
p3063
aS'60937'
p3064
aS'12389'
p3065
aS'16509'
p3066
aS'6461'
p3067
ag2910
aa(lp3068
S'3267'
p3069
aS'60937'
p3070
aS'12389'
p3071
aS'16509'
p3072
aS'6461'
p3073
ag2910
aa(lp3074
S'22873'
p3075
aS'6939'
p3076
aS'6939'
p3077
aS'60937'
p3078
aS'12389'
p3079
aS'16509'
p3080
aS'6461'
p3081
ag2910
aa(lp3082
S'48526'
p3083
aS'60937'
p3084
aS'12389'
p3085
aS'16509'
p3086
aS'6461'
p3087
ag2910
aa(lp3088
S'48285'
p3089
aS'16150'
p3090
aS'60937'
p3091
aS'12389'
p3092
aS'16509'
p3093
aS'6461'
p3094
ag2910
aa(lp3095
S'13030'
p3096
aS'60937'
p3097
aS'12389'
p3098
aS'16509'
p3099
aS'6461'
p3100
ag2910
aa(lp3101
S'9002'
p3102
aS'60937'
p3103
aS'12389'
p3104
aS'16509'
p3105
aS'6461'
p3106
ag2910
aa(lp3107
S'12779'
p3108
aS'60937'
p3109
aS'12389'
p3110
aS'16509'
p3111
aS'6461'
p3112
ag2910
aa(lp3113
S'12637'
p3114
aS'60937'
p3115
aS'12389'
p3116
aS'16509'
p3117
aS'6461'
p3118
ag2910
aa(lp3119
S'8331'
p3120
aS'39792'
p3121
aS'39792'
p3122
aS'60937'
p3123
aS'12389'
p3124
aS'16509'
p3125
aS'6461'
p3126
ag2910
aa(lp3127
S'39821'
p3128
aS'28917'
p3129
aS'60937'
p3130
aS'12389'
p3131
aS'16509'
p3132
aS'6461'
p3133
ag2910
aa(lp3134
S'41095'
p3135
aS'60937'
p3136
aS'12389'
p3137
aS'16509'
p3138
aS'6461'
p3139
ag2910
aa(lp3140
S'9002'
p3141
aS'60937'
p3142
aS'12389'
p3143
aS'16509'
p3144
aS'6461'
p3145
ag2910
aa(lp3146
S'28917'
p3147
aS'60937'
p3148
aS'12389'
p3149
aS'16509'
p3150
aS'6461'
p3151
ag2910
aa(lp3152
S'25091'
p3153
aS'60937'
p3154
aS'12389'
p3155
aS'16509'
p3156
aS'6461'
p3157
ag2910
aa(lp3158
S'2895'
p3159
aS'3267'
p3160
aS'60937'
p3161
aS'12389'
p3162
aS'16509'
p3163
aS'6461'
p3164
ag2910
aa(lp3165
S'8359'
p3166
aS'60937'
p3167
aS'12389'
p3168
aS'16509'
p3169
aS'6461'
p3170
ag2910
aa(lp3171
S'29140'
p3172
aS'41692'
p3173
aS'60937'
p3174
aS'12389'
p3175
aS'16509'
p3176
aS'6461'
p3177
ag2910
aa(lp3178
S'29140'
p3179
aS'60937'
p3180
aS'12389'
p3181
aS'16509'
p3182
aS'6461'
p3183
ag2910
aa(lp3184
S'25220'
p3185
aS'60937'
p3186
aS'12389'
p3187
aS'16509'
p3188
aS'6461'
p3189
ag2910
aa(lp3190
S'9189'
p3191
aS'44953'
p3192
aS'60937'
p3193
aS'12389'
p3194
aS'16509'
p3195
aS'6461'
p3196
ag2910
aa(lp3197
S'34288'
p3198
aS'60937'
p3199
aS'12389'
p3200
aS'16509'
p3201
aS'6461'
p3202
ag2910
aa(lp3203
S'52888'
p3204
aS'1251'
p3205
aS'20080'
p3206
aS'60937'
p3207
aS'12389'
p3208
aS'16509'
p3209
aS'6461'
p3210
ag2910
aa(lp3211
S'53070'
p3212
aS'12989'
p3213
aS'60937'
p3214
aS'12389'
p3215
aS'16509'
p3216
aS'6461'
p3217
ag2910
aa(lp3218
S'1916'
p3219
aS'20080'
p3220
aS'60937'
p3221
aS'12389'
p3222
aS'16509'
p3223
aS'6461'
p3224
ag2910
aa(lp3225
S'1280'
p3226
aS'6939'
p3227
aS'60937'
p3228
aS'12389'
p3229
aS'16509'
p3230
aS'6461'
p3231
ag2910
aa(lp3232
S'15301'
p3233
aS'6939'
p3234
aS'60937'
p3235
aS'12389'
p3236
aS'16509'
p3237
aS'6461'
p3238
ag2910
aa(lp3239
S'54073'
p3240
aS'2044'
p3241
aS'6939'
p3242
aS'60937'
p3243
aS'12389'
p3244
aS'16509'
p3245
aS'6461'
p3246
ag2910
aa(lp3247
S'9002'
p3248
aS'60937'
p3249
aS'12389'
p3250
aS'16509'
p3251
aS'6461'
p3252
ag2910
aa(lp3253
S'16700'
p3254
aS'6939'
p3255
aS'60937'
p3256
aS'12389'
p3257
aS'16509'
p3258
aS'6461'
p3259
ag2910
aa(lp3260
S'6939'
p3261
aS'60937'
p3262
aS'12389'
p3263
aS'16509'
p3264
aS'6461'
p3265
ag2910
aa(lp3266
S'13030'
p3267
aS'60937'
p3268
aS'12389'
p3269
aS'16509'
p3270
aS'6461'
p3271
ag2910
aa(lp3272
S'8426'
p3273
aS'6777'
p3274
aS'60937'
p3275
aS'12389'
p3276
aS'16509'
p3277
aS'6461'
p3278
ag2910
aa(lp3279
S'34288'
p3280
aS'60937'
p3281
aS'12389'
p3282
aS'16509'
p3283
aS'6461'
p3284
ag2910
aa(lp3285
S'41695'
p3286
aS'8468'
p3287
aS'60937'
p3288
aS'12389'
p3289
aS'16509'
p3290
aS'6461'
p3291
ag2910
aa(lp3292
S'6939'
p3293
aS'60937'
p3294
aS'12389'
p3295
aS'16509'
p3296
aS'6461'
p3297
ag2910
aa(lp3298
S'13030'
p3299
aS'60937'
p3300
aS'12389'
p3301
aS'16509'
p3302
aS'6461'
p3303
ag2910
aa(lp3304
S'31500'
p3305
aS'3267'
p3306
aS'60937'
p3307
aS'12389'
p3308
aS'16509'
p3309
aS'6461'
p3310
ag2910
aa(lp3311
S'53237'
p3312
aS'12989'
p3313
aS'60937'
p3314
aS'12389'
p3315
aS'16509'
p3316
aS'6461'
p3317
ag2910
aa(lp3318
S'28571'
p3319
aS'1251'
p3320
aS'20080'
p3321
aS'60937'
p3322
aS'12389'
p3323
aS'16509'
p3324
aS'6461'
p3325
ag2910
aa(lp3326
S'28571'
p3327
aS'1916'
p3328
aS'20080'
p3329
aS'60937'
p3330
aS'12389'
p3331
aS'16509'
p3332
aS'6461'
p3333
ag2910
aa(lp3334
S'52888'
p3335
aS'1251'
p3336
aS'20080'
p3337
aS'60937'
p3338
aS'12389'
p3339
aS'16509'
p3340
aS'6461'
p3341
ag2910
aa(lp3342
S'28294'
p3343
aS'28667'
p3344
aS'28124'
p3345
aS'18479'
p3346
aS'7162'
p3347
aS'12989'
p3348
aS'60937'
p3349
aS'12389'
p3350
aS'16509'
p3351
aS'6461'
p3352
ag2910
aa(lp3353
S'1916'
p3354
aS'20080'
p3355
aS'60937'
p3356
aS'12389'
p3357
aS'16509'
p3358
aS'6461'
p3359
ag2910
aa(lp3360
S'6939'
p3361
aS'60937'
p3362
aS'12389'
p3363
aS'16509'
p3364
aS'6461'
p3365
ag2910
aa(lp3366
S'12859'
p3367
aS'60937'
p3368
aS'12389'
p3369
aS'16509'
p3370
aS'6461'
p3371
ag2910
aa(lp3372
S'20562'
p3373
aS'60937'
p3374
aS'12389'
p3375
aS'16509'
p3376
aS'6461'
p3377
ag2910
aa(lp3378
S'15435'
p3379
aS'60937'
p3380
aS'12389'
p3381
aS'16509'
p3382
aS'6461'
p3383
ag2910
aa(lp3384
S'20562'
p3385
aS'60937'
p3386
aS'12389'
p3387
aS'16509'
p3388
aS'6461'
p3389
ag2910
aa(lp3390
S'30132'
p3391
aS'60937'
p3392
aS'12389'
p3393
aS'16509'
p3394
aS'6461'
p3395
ag2910
aa(lp3396
S'1103'
p3397
aS'60937'
p3398
aS'12389'
p3399
aS'16509'
p3400
aS'6461'
p3401
ag2910
aa(lp3402
S'31019'
p3403
aS'60937'
p3404
aS'12389'
p3405
aS'16509'
p3406
aS'6461'
p3407
ag2910
aa(lp3408
S'50763'
p3409
aS'60937'
p3410
aS'12389'
p3411
aS'16509'
p3412
aS'6461'
p3413
ag2910
aa(lp3414
S'9304'
p3415
aS'60937'
p3416
aS'12389'
p3417
aS'16509'
p3418
aS'6461'
p3419
ag2910
aa(lp3420
S'3333'
p3421
aS'60937'
p3422
aS'12389'
p3423
aS'16509'
p3424
aS'6461'
p3425
ag2910
aa(lp3426
S'50300'
p3427
aS'60937'
p3428
aS'12389'
p3429
aS'16509'
p3430
aS'6461'
p3431
ag2910
aa(lp3432
S'57381'
p3433
aS'42708'
p3434
aS'60937'
p3435
aS'12389'
p3436
aS'16509'
p3437
aS'6461'
p3438
ag2910
aa(lp3439
S'8758'
p3440
aS'15576'
p3441
aS'6772'
p3442
aS'13030'
p3443
aS'60937'
p3444
aS'12389'
p3445
aS'16509'
p3446
aS'6461'
p3447
ag2910
aa(lp3448
S'6881'
p3449
aS'29208'
p3450
aS'60937'
p3451
aS'12389'
p3452
aS'16509'
p3453
aS'6461'
p3454
ag2910
aa(lp3455
S'4608'
p3456
aS'24130'
p3457
aS'7545'
p3458
aS'6939'
p3459
aS'60937'
p3460
aS'12389'
p3461
aS'16509'
p3462
aS'6461'
p3463
ag2910
aa(lp3464
S'13030'
p3465
aS'60937'
p3466
aS'12389'
p3467
aS'16509'
p3468
aS'6461'
p3469
ag2910
aa(lp3470
S'56730'
p3471
aS'31463'
p3472
aS'50300'
p3473
aS'60937'
p3474
aS'12389'
p3475
aS'16509'
p3476
aS'6461'
p3477
ag2910
aa(lp3478
S'8468'
p3479
aS'60937'
p3480
aS'12389'
p3481
aS'16509'
p3482
aS'6461'
p3483
ag2910
aa(lp3484
S'25160'
p3485
aS'60937'
p3486
aS'12389'
p3487
aS'16509'
p3488
aS'6461'
p3489
ag2910
aa(lp3490
S'25152'
p3491
aS'6939'
p3492
aS'60937'
p3493
aS'12389'
p3494
aS'16509'
p3495
aS'6461'
p3496
ag2910
aa(lp3497
S'9002'
p3498
aS'60937'
p3499
aS'12389'
p3500
aS'16509'
p3501
aS'6461'
p3502
ag2910
aa(lp3503
S'20932'
p3504
aS'60937'
p3505
aS'12389'
p3506
aS'16509'
p3507
aS'6461'
p3508
ag2910
aa(lp3509
S'25091'
p3510
aS'60937'
p3511
aS'12389'
p3512
aS'16509'
p3513
aS'6461'
p3514
ag2910
aa(lp3515
S'1853'
p3516
aS'1764'
p3517
aS'60937'
p3518
aS'12389'
p3519
aS'16509'
p3520
aS'6461'
p3521
ag2910
aa(lp3522
S'8596'
p3523
aS'1764'
p3524
aS'60937'
p3525
aS'12389'
p3526
aS'16509'
p3527
aS'6461'
p3528
ag2910
aa(lp3529
S'8447'
p3530
aS'60937'
p3531
aS'12389'
p3532
aS'16509'
p3533
aS'6461'
p3534
ag2910
aa(lp3535
S'6720'
p3536
aS'1853'
p3537
aS'1764'
p3538
aS'60937'
p3539
aS'12389'
p3540
aS'16509'
p3541
aS'6461'
p3542
ag2910
aa(lp3543
S'6720'
p3544
aS'8447'
p3545
aS'60937'
p3546
aS'12389'
p3547
aS'16509'
p3548
aS'6461'
p3549
ag2910
aa(lp3550
S'24482'
p3551
aS'60937'
p3552
aS'12389'
p3553
aS'16509'
p3554
aS'6461'
p3555
ag2910
aassS'hege_score'
p3556
(dp3557
S'1273'
p3558
(dp3559
S'web'
p3560
(dp3561
S'5089'
p3562
F8.67938705735657e-06
sS'2914'
p3563
F0.00563049204795988
sS'6461'
p3564
F3.40132583681119e-06
sS'3257'
p3565
F8.95469262648526e-05
sS'3356'
p3566
F0.0335585253419756
sS'174'
p3567
F0.00170884577335117
sS'1299'
p3568
F0.0664863664541425
ssS'loc'
p3569
(dp3570
S'60937'
p3571
F1.0
sS'6461'
p3572
F1.0
sS'6939'
p3573
F0.14285714285714285
sS'12389'
p3574
F1.0
sS'16509'
p3575
F1.0
sssssS'innocent_as'
p3576
S'1273'
p3577
sS'pfxes_of_hijacker'
p3578
(dp3579
sS'hijack_as'
p3580
g2669
sS'hijack_prefix'
p3581
g2619
sS'victim_as'
p3582
g2675
sS'end_time'
p3583
cdatetime
datetime
p3584
(S'\x07\xde\t\x1b\x17\x00\x00\x00\x00\x00'
p3585
tp3586
Rp3587
s.